(lp0
((lp1
S'boulgour'
p2
aS'noix'
p3
aS'amandes'
p4
aS'origan'
p5
aS'poivre'
p6
aS'no'
p7
tp8
a((lp9
S'petits-pois'
p10
aS'c\xc5\x93urs d\xe2\x80\x99artichaut'
p11
aS'piment'
p12
aS'curcuma'
p13
aS'citron'
p14
aS'almost'
p15
tp16
a((lp17
S'lasagnes'
p18
aS'amandes'
p19
aS'oignons'
p20
aS'parmesan'
p21
aS'menthe'
p22
aS'no'
p23
tp24
a((lp25
S'\xc3\xa9pis de ma\xc3\xafs'
p26
aS'noisettes'
p27
aS'lait de coco'
p28
aS'citron'
p29
aS'basilic'
p30
aS'no'
p31
tp32
a((lp33
S'haricots verts'
p34
aS'chou fleur'
p35
aS'mozzarella'
p36
aS'oignons'
p37
aS'coriandre'
p38
aS'no'
p39
tp40
a((lp41
S'boulgour'
p42
aS'oeuf'
p43
aS'origan'
p44
aS'paprika'
p45
aS'ail'
p46
aS'yes'
p47
tp48
a((lp49
S'millet'
p50
aS'cacahu\xc3\xa8tes'
p51
aS'parmesan'
p52
aS'menthe'
p53
aS'origan'
p54
aS'yes'
p55
tp56
a((lp57
S'millet'
p58
aS'poivron'
p59
aS'cacahu\xc3\xa8tes'
p60
aS'persil'
p61
aS'origan'
p62
aS'yes'
p63
tp64
a((lp65
S'haricots verts'
p66
aS'comt\xc3\xa9'
p67
aS'mozzarella'
p68
aS'pesto'
p69
aS'ciboulette'
p70
aS'yes'
p71
tp72
a((lp73
S'patates douces'
p74
aS'noix'
p75
aS'tomates fra\xc3\xaeches'
p76
aS'paprika'
p77
aS'origan'
p78
aS'yes'
p79
tp80
a((lp81
S'haricots verts'
p82
aS'oeuf'
p83
aS'seitan grill\xc3\xa9'
p84
aS'paprika'
p85
aS'sauce soja'
p86
aS'yes'
p87
tp88
a((lp89
S'riz'
p90
aS'fromage r\xc3\xa2p\xc3\xa9'
p91
aS'ail'
p92
aS'curry'
p93
aS'poivre'
p94
aS'almost'
p95
tp96
a((lp97
S'pois-chiches'
p98
aS'tomates s\xc3\xa9ch\xc3\xa9es'
p99
aS'amandes'
p100
aS'persil'
p101
aS'cumin'
p102
aS'yes'
p103
tp104
a((lp105
S'boulgour'
p106
aS'olives'
p107
aS'roquette'
p108
aS'citron'
p109
aS'coriandre'
p110
aS'almost'
p111
tp112
a((lp113
S'galettes'
p114
aS'seitan grill\xc3\xa9'
p115
aS'tofu grill\xc3\xa9'
p116
aS'olives'
p117
aS'coriandre'
p118
aS'no'
p119
tp120
a((lp121
S'risotto'
p122
aS'mozzarella'
p123
aS'cacahu\xc3\xa8tes'
p124
aS'curcuma'
p125
aS'sauce soja'
p126
aS'almost'
p127
tp128
a((lp129
S'petits-pois'
p130
aS'pignons de pin'
p131
aS'moutarde'
p132
aS'pesto'
p133
aS'curcuma'
p134
aS'almost'
p135
tp136
a((lp137
S'pitta'
p138
aS'cacahu\xc3\xa8tes'
p139
aS'c\xc5\x93ur de palmiers'
p140
aS'oignons'
p141
aS'citron'
p142
aS'no'
p143
tp144
a((lp145
S'cr\xc3\xaapes'
p146
aS'comt\xc3\xa9'
p147
aS'mozzarella'
p148
aS'c\xc3\xa2pres'
p149
aS'poivre'
p150
aS'no'
p151
tp152
a((lp153
S'boulgour'
p154
aS'aubergine'
p155
aS'roquette'
p156
aS'paprika'
p157
aS'herbes de provences'
p158
aS'yes'
p159
tp160
a((lp161
S'risotto'
p162
aS'seitan grill\xc3\xa9'
p163
aS'herbes de provences'
p164
aS'ciboulette'
p165
aS'\xc3\xa9chalottes'
p166
aS'almost'
p167
tp168
a((lp169
S'pain'
p170
aS'oeuf'
p171
aS'\xc3\xa9chalottes'
p172
aS'herbes de provences'
p173
aS'cumin'
p174
aS'no'
p175
tp176
a((lp177
S'petits-pois'
p178
aS'mozzarella'
p179
aS'paprika'
p180
aS'persil'
p181
aS'herbes de provences'
p182
aS'almost'
p183
tp184
a((lp185
S'beurre de cacahu\xc3\xa8te'
p186
aS'comt\xc3\xa9'
p187
aS'roquefort'
p188
aS'fromage r\xc3\xa2p\xc3\xa9'
p189
aS'sauce tomate'
p190
aS'no'
p191
tp192
a((lp193
S'comt\xc3\xa9'
p194
aS'oeuf'
p195
aS'courgette'
p196
aS'c\xc5\x93urs d\xe2\x80\x99artichaut'
p197
aS'fromage r\xc3\xa2p\xc3\xa9'
p198
aS'no'
p199
tp200
a((lp201
S'patates'
p202
aS'poivron'
p203
aS'parmesan'
p204
aS's\xc3\xa9same'
p205
aS'coriandre'
p206
aS'no'
p207
tp208
a((lp209
S'galettes'
p210
aS'beurre de cacahu\xc3\xa8te'
p211
aS'cacahu\xc3\xa8tes'
p212
aS'origan'
p213
aS'poivre'
p214
aS'no'
p215
tp216
a((lp217
S'\xc3\xa9pis de ma\xc3\xafs'
p218
aS'comt\xc3\xa9'
p219
aS'pousses de lentilles'
p220
aS'herbes de provences'
p221
aS'origan'
p222
aS'almost'
p223
tp224
a((lp225
S'riz'
p226
aS'fromage r\xc3\xa2p\xc3\xa9'
p227
aS'\xc3\xa9chalottes'
p228
aS'menthe'
p229
aS's\xc3\xa9same'
p230
aS'no'
p231
tp232
a((lp233
S'camenbert'
p234
aS'oeuf'
p235
aS'seitan grill\xc3\xa9'
p236
aS'cacahu\xc3\xa8tes'
p237
aS'moutarde'
p238
aS'no'
p239
tp240
a((lp241
S'aubergine'
p242
aS'roquefort'
p243
aS'asperges'
p244
aS'mozzarella'
p245
aS'curry'
p246
aS'no'
p247
tp248
a((lp249
S'haricots verts'
p250
aS'asperges'
p251
aS'c\xc5\x93ur de palmiers'
p252
aS'parmesan'
p253
aS'poivre'
p254
aS'no'
p255
tp256
a((lp257
S'oeuf'
p258
aS'brie'
p259
aS'chou fleur'
p260
aS'amandes'
p261
aS'olives'
p262
aS'almost'
p263
tp264
a((lp265
S'millet'
p266
aS'c\xc3\xa2pres'
p267
aS'parmesan'
p268
aS'\xc3\xa9chalottes'
p269
aS'poivre'
p270
aS'no'
p271
tp272
a((lp273
S'millet'
p274
aS'asperges'
p275
aS'moutarde'
p276
aS'basilic'
p277
aS'poivre'
p278
aS'yes'
p279
tp280
a((lp281
S'polenta'
p282
aS'lait de coco'
p283
aS'oignons'
p284
aS'ail'
p285
aS'sauce soja'
p286
aS'no'
p287
tp288
a((lp289
S'pois cass\xc3\xa9s'
p290
aS'tofu grill\xc3\xa9'
p291
aS'c\xc5\x93urs d\xe2\x80\x99artichaut'
p292
aS'menthe'
p293
aS'cumin'
p294
aS'yes'
p295
tp296
a((lp297
S'petits-pois'
p298
aS'roquefort'
p299
aS'menthe'
p300
aS'ciboulette'
p301
aS'sauce soja'
p302
aS'almost'
p303
tp304
a((lp305
S'p\xc3\xa2tes'
p306
aS'oeuf'
p307
aS'parmesan'
p308
aS'cumin'
p309
aS'ail'
p310
aS'yes'
p311
tp312
a((lp313
S'pois-chiches'
p314
aS'cacahu\xc3\xa8tes'
p315
aS'piment'
p316
aS'moutarde'
p317
aS'origan'
p318
aS'yes'
p319
tp320
a((lp321
S'lentilles'
p322
aS'lait de coco'
p323
aS'roquette'
p324
aS'origan'
p325
aS'curry'
p326
aS'yes'
p327
tp328
a((lp329
S'quinoa'
p330
aS'asperges'
p331
aS'tomates fra\xc3\xaeches'
p332
aS'sauce soja'
p333
aS'persil'
p334
aS'yes'
p335
tp336
a((lp337
S'quinoa'
p338
aS'tomates s\xc3\xa9ch\xc3\xa9es'
p339
aS'tomates fra\xc3\xaeches'
p340
aS'roquette'
p341
aS's\xc3\xa9same'
p342
aS'almost'
p343
tp344
a((lp345
S'pain'
p346
aS'roquefort'
p347
aS'amandes'
p348
aS'sauce tomate'
p349
aS'\xc3\xa9chalottes'
p350
aS'yes'
p351
tp352
a((lp353
S'cr\xc3\xaapes'
p354
aS'seitan grill\xc3\xa9'
p355
aS'amandes'
p356
aS'pousses de lentilles'
p357
aS'curcuma'
p358
aS'no'
p359
tp360
a((lp361
S'haricots blancs/rouges'
p362
aS'camenbert'
p363
aS'roquette'
p364
aS'herbes de provences'
p365
aS'paprika'
p366
aS'no'
p367
tp368
a((lp369
S'\xc3\xa9pis de ma\xc3\xafs'
p370
aS'poivron'
p371
aS'c\xc5\x93ur de palmiers'
p372
aS'oignons'
p373
aS'piment'
p374
aS'no'
p375
tp376
a((lp377
S'cr\xc3\xaapes'
p378
aS'asperges'
p379
aS'camenbert'
p380
aS'curcuma'
p381
aS'curry'
p382
aS'no'
p383
tp384
a((lp385
S'p\xc3\xa2tes'
p386
aS'noisettes'
p387
aS'tomates fra\xc3\xaeches'
p388
aS'\xc3\xa9chalottes'
p389
aS'sauce soja'
p390
aS'almost'
p391
tp392
a((lp393
S'cr\xc3\xaapes'
p394
aS'brie'
p395
aS'c\xc5\x93ur de palmiers'
p396
aS'olives'
p397
aS'citron'
p398
aS'no'
p399
tp400
a((lp401
S'p\xc3\xa2tes'
p402
aS'seitan grill\xc3\xa9'
p403
aS'oignons'
p404
aS'citron'
p405
aS'coriandre'
p406
aS'almost'
p407
tp408
a((lp409
S'galettes'
p410
aS'beurre de cacahu\xc3\xa8te'
p411
aS'seitan grill\xc3\xa9'
p412
aS'pignons de pin'
p413
aS'curcuma'
p414
aS'no'
p415
tp416
a((lp417
S'cr\xc3\xaapes'
p418
aS'chou fleur'
p419
aS'c\xc5\x93urs d\xe2\x80\x99artichaut'
p420
aS'pesto'
p421
aS'cumin'
p422
aS'no'
p423
tp424
a((lp425
S'pois cass\xc3\xa9s'
p426
aS'roquefort'
p427
aS'parmesan'
p428
aS'moutarde'
p429
aS'basilic'
p430
aS'no'
p431
tp432
a((lp433
S'patates douces'
p434
aS'poivron'
p435
aS'c\xc5\x93urs d\xe2\x80\x99artichaut'
p436
aS'olives'
p437
aS'ciboulette'
p438
aS'no'
p439
tp440
a((lp441
S'pois cass\xc3\xa9s'
p442
aS'brie'
p443
aS'piment'
p444
aS'ciboulette'
p445
aS'menthe'
p446
aS'no'
p447
tp448
a((lp449
S'galettes'
p450
aS'aubergine'
p451
aS'chou fleur'
p452
aS'sauce tomate'
p453
aS'poivre'
p454
aS'no'
p455
tp456
a((lp457
S'patates'
p458
aS'tomates fra\xc3\xaeches'
p459
aS'moutarde'
p460
aS'oignons'
p461
aS'herbes de provences'
p462
aS'yes'
p463
tp464
a((lp465
S'lasagnes'
p466
aS'seitan grill\xc3\xa9'
p467
aS'tomates s\xc3\xa9ch\xc3\xa9es'
p468
aS'oignons'
p469
aS'cumin'
p470
aS'no'
p471
tp472
a((lp473
S'p\xc3\xa2tes'
p474
aS'camenbert'
p475
aS'poivron'
p476
aS'origan'
p477
aS's\xc3\xa9same'
p478
aS'almost'
p479
tp480
a((lp481
S'lasagnes'
p482
aS'chou fleur'
p483
aS'poivron'
p484
aS'pesto'
p485
aS'\xc3\xa9chalottes'
p486
aS'no'
p487
tp488
a((lp489
S'spaghetti'
p490
aS'fromage r\xc3\xa2p\xc3\xa9'
p491
aS'sauce tomate'
p492
aS'ciboulette'
p493
aS'curcuma'
p494
aS'yes'
p495
tp496
a((lp497
S'galettes'
p498
aS'aubergine'
p499
aS'asperges'
p500
aS'pignons de pin'
p501
aS'basilic'
p502
aS'yes'
p503
tp504
a((lp505
S'galettes'
p506
aS'camenbert'
p507
aS'pignons de pin'
p508
aS'moutarde'
p509
aS'persil'
p510
aS'almost'
p511
tp512
a((lp513
S'cr\xc3\xaapes'
p514
aS'aubergine'
p515
aS'chou fleur'
p516
aS'paprika'
p517
aS'ail'
p518
aS'no'
p519
tp520
a((lp521
S'p\xc3\xa2tes'
p522
aS'camenbert'
p523
aS'c\xc3\xa2pres'
p524
aS'parmesan'
p525
aS'cumin'
p526
aS'almost'
p527
tp528
a((lp529
S'petits-pois'
p530
aS'oeuf'
p531
aS'\xc3\xa9chalottes'
p532
aS'curry'
p533
aS'paprika'
p534
aS'almost'
p535
tp536
a((lp537
S'nouilles chinoises'
p538
aS'roquefort'
p539
aS'sauce tomate'
p540
aS'cumin'
p541
aS'ciboulette'
p542
aS'yes'
p543
tp544
a((lp545
S'galettes'
p546
aS'lait de coco'
p547
aS'c\xc5\x93ur de palmiers'
p548
aS'parmesan'
p549
aS'cumin'
p550
aS'no'
p551
tp552
a((lp553
S'spaghetti'
p554
aS'tomates fra\xc3\xaeches'
p555
aS'c\xc5\x93ur de palmiers'
p556
aS'piment'
p557
aS'ciboulette'
p558
aS'yes'
p559
tp560
a((lp561
S'pain'
p562
aS'beurre de cacahu\xc3\xa8te'
p563
aS'lait de coco'
p564
aS'curcuma'
p565
aS'ciboulette'
p566
aS'no'
p567
tp568
a((lp569
S'quinoa'
p570
aS'c\xc5\x93urs d\xe2\x80\x99artichaut'
p571
aS'fromage r\xc3\xa2p\xc3\xa9'
p572
aS'tomates s\xc3\xa9ch\xc3\xa9es'
p573
aS'cumin'
p574
aS'yes'
p575
tp576
a((lp577
S'galettes'
p578
aS'asperges'
p579
aS'lait de coco'
p580
aS'olives'
p581
aS'pousses de lentilles'
p582
aS'almost'
p583
tp584
a((lp585
S'quinoa'
p586
aS'noisettes'
p587
aS'tomates fra\xc3\xaeches'
p588
aS'parmesan'
p589
aS'persil'
p590
aS'yes'
p591
tp592
a((lp593
S'p\xc3\xa2tes'
p594
aS'brie'
p595
aS'moutarde'
p596
aS's\xc3\xa9same'
p597
aS'citron'
p598
aS'almost'
p599
tp600
a((lp601
S'haricots blancs/rouges'
p602
aS'oeuf'
p603
aS'fromage r\xc3\xa2p\xc3\xa9'
p604
aS'ciboulette'
p605
aS'sauce soja'
p606
aS'yes'
p607
tp608
a((lp609
S'polenta'
p610
aS'tofu grill\xc3\xa9'
p611
aS'poivron'
p612
aS'origan'
p613
aS'cumin'
p614
aS'yes'
p615
tp616
a((lp617
S'quinoa'
p618
aS'tofu grill\xc3\xa9'
p619
aS'cacahu\xc3\xa8tes'
p620
aS'pousses de lentilles'
p621
aS'paprika'
p622
aS'yes'
p623
tp624
a((lp625
S'boulgour'
p626
aS'noisettes'
p627
aS'c\xc5\x93ur de palmiers'
p628
aS'pousses de lentilles'
p629
aS'origan'
p630
aS'almost'
p631
tp632
a((lp633
S'haricots verts'
p634
aS'noix'
p635
aS'mozzarella'
p636
aS'pousses de lentilles'
p637
aS'moutarde'
p638
aS'yes'
p639
tp640
a((lp641
S'boulgour'
p642
aS'camenbert'
p643
aS'poivre'
p644
aS'ciboulette'
p645
aS'basilic'
p646
aS'no'
p647
tp648
a((lp649
S'cr\xc3\xaapes'
p650
aS'comt\xc3\xa9'
p651
aS'olives'
p652
aS'parmesan'
p653
aS'menthe'
p654
aS'no'
p655
tp656
a((lp657
S'p\xc3\xa2tes'
p658
aS'comt\xc3\xa9'
p659
aS'noisettes'
p660
aS'cumin'
p661
aS'curry'
p662
aS'yes'
p663
tp664
a((lp665
S'\xc3\xa9pis de ma\xc3\xafs'
p666
aS'poireau'
p667
aS'noix'
p668
aS'basilic'
p669
aS'paprika'
p670
aS'no'
p671
tp672
a((lp673
S'millet'
p674
aS'c\xc5\x93urs d\xe2\x80\x99artichaut'
p675
aS'noisettes'
p676
aS'pousses de lentilles'
p677
aS'coriandre'
p678
aS'almost'
p679
tp680
a((lp681
S'lasagnes'
p682
aS'roquefort'
p683
aS'roquette'
p684
aS'herbes de provences'
p685
aS'paprika'
p686
aS'no'
p687
tp688
a((lp689
S'lasagnes'
p690
aS'noix'
p691
aS'mozzarella'
p692
aS'\xc3\xa9chalottes'
p693
aS'origan'
p694
aS'no'
p695
tp696
a((lp697
S'patates'
p698
aS'mozzarella'
p699
aS'pignons de pin'
p700
aS'basilic'
p701
aS'cumin'
p702
aS'no'
p703
tp704
a((lp705
S'pois-chiches'
p706
aS'c\xc5\x93urs d\xe2\x80\x99artichaut'
p707
aS'mozzarella'
p708
aS'herbes de provences'
p709
aS'poivre'
p710
aS'almost'
p711
tp712
a((lp713
S'lentilles'
p714
aS'poireau'
p715
aS'pignons de pin'
p716
aS's\xc3\xa9same'
p717
aS'sauce soja'
p718
aS'yes'
p719
tp720
a((lp721
S'pois-chiches'
p722
aS'noix'
p723
aS'lait de coco'
p724
aS'herbes de provences'
p725
aS'ail'
p726
aS'no'
p727
tp728
a((lp729
S'p\xc3\xa2tes'
p730
aS'roquefort'
p731
aS'pesto'
p732
aS'origan'
p733
aS'coriandre'
p734
aS'yes'
p735
tp736
a((lp737
S'quinoa'
p738
aS'asperges'
p739
aS'cacahu\xc3\xa8tes'
p740
aS'sauce tomate'
p741
aS'cumin'
p742
aS'yes'
p743
tp744
a((lp745
S'haricots verts'
p746
aS'comt\xc3\xa9'
p747
aS'c\xc5\x93ur de palmiers'
p748
aS'pesto'
p749
aS'citron'
p750
aS'yes'
p751
tp752
a((lp753
S'pois-chiches'
p754
aS'tomates fra\xc3\xaeches'
p755
aS'pesto'
p756
aS'origan'
p757
aS'basilic'
p758
aS'yes'
p759
tp760
a((lp761
S'pain'
p762
aS'poireau'
p763
aS'moutarde'
p764
aS'pesto'
p765
aS'roquette'
p766
aS'no'
p767
tp768
a((lp769
S'riz'
p770
aS'poireau'
p771
aS'pesto'
p772
aS'ciboulette'
p773
aS'citron'
p774
aS'yes'
p775
tp776
a((lp777
S'polenta'
p778
aS'seitan grill\xc3\xa9'
p779
aS'poivre'
p780
aS'curry'
p781
aS's\xc3\xa9same'
p782
aS'almost'
p783
tp784
a((lp785
S'pitta'
p786
aS'tomates s\xc3\xa9ch\xc3\xa9es'
p787
aS'noisettes'
p788
aS'pignons de pin'
p789
aS'pesto'
p790
aS'no'
p791
tp792
a((lp793
S'riz'
p794
aS'pousses de lentilles'
p795
aS'olives'
p796
aS'c\xc3\xa2pres'
p797
aS'citron'
p798
aS'yes'
p799
tp800
a((lp801
S'haricots blancs/rouges'
p802
aS'courgette'
p803
aS'tomates fra\xc3\xaeches'
p804
aS'basilic'
p805
aS'origan'
p806
aS'yes'
p807
tp808
a((lp809
S'risotto'
p810
aS'mozzarella'
p811
aS'amandes'
p812
aS'roquette'
p813
aS'sauce soja'
p814
aS'almost'
p815
tp816
a((lp817
S'patates'
p818
aS'aubergine'
p819
aS'tomates s\xc3\xa9ch\xc3\xa9es'
p820
aS'cumin'
p821
aS'paprika'
p822
aS'almost'
p823
tp824
a((lp825
S'lentilles'
p826
aS'comt\xc3\xa9'
p827
aS'cumin'
p828
aS'sauce soja'
p829
aS'menthe'
p830
aS'no'
p831
tp832
a((lp833
S'pitta'
p834
aS'lait de coco'
p835
aS'tofu grill\xc3\xa9'
p836
aS'moutarde'
p837
aS'herbes de provences'
p838
aS'no'
p839
tp840
a((lp841
S'nouilles chinoises'
p842
aS'camenbert'
p843
aS'parmesan'
p844
aS'curry'
p845
aS'\xc3\xa9chalottes'
p846
aS'no'
p847
tp848
a((lp849
S'galettes'
p850
aS'chou fleur'
p851
aS'amandes'
p852
aS'origan'
p853
aS'ail'
p854
aS'no'
p855
tp856
a((lp857
S'risotto'
p858
aS'mozzarella'
p859
aS'sauce tomate'
p860
aS'persil'
p861
aS'menthe'
p862
aS'yes'
p863
tp864
a((lp865
S'spaghetti'
p866
aS'beurre de cacahu\xc3\xa8te'
p867
aS'curcuma'
p868
aS'herbes de provences'
p869
aS'curry'
p870
aS'almost'
p871
tp872
a((lp873
S'risotto'
p874
aS'seitan grill\xc3\xa9'
p875
aS'c\xc3\xa2pres'
p876
aS'menthe'
p877
aS'\xc3\xa9chalottes'
p878
aS'almost'
p879
tp880
a((lp881
S'asperges'
p882
aS'poireau'
p883
aS'roquefort'
p884
aS'cacahu\xc3\xa8tes'
p885
aS'oignons'
p886
aS'no'
p887
tp888
a((lp889
S'polenta'
p890
aS'c\xc3\xa2pres'
p891
aS'olives'
p892
aS'pignons de pin'
p893
aS'moutarde'
p894
aS'no'
p895
tp896
a((lp897
S'\xc3\xa9pis de ma\xc3\xafs'
p898
aS'brie'
p899
aS'oignons'
p900
aS'pousses de lentilles'
p901
aS'poivre'
p902
aS'no'
p903
tp904
a((lp905
S'pain'
p906
aS'oeuf'
p907
aS'roquette'
p908
aS'paprika'
p909
aS'citron'
p910
aS'yes'
p911
tp912
a((lp913
S'\xc3\xa9pis de ma\xc3\xafs'
p914
aS'aubergine'
p915
aS'oeuf'
p916
aS'citron'
p917
aS'curry'
p918
aS'almost'
p919
tp920
a((lp921
S'patates douces'
p922
aS'comt\xc3\xa9'
p923
aS'sauce tomate'
p924
aS'pignons de pin'
p925
aS'origan'
p926
aS'yes'
p927
tp928
a((lp929
S'patates douces'
p930
aS'seitan grill\xc3\xa9'
p931
aS'parmesan'
p932
aS'persil'
p933
aS'curcuma'
p934
aS'yes'
p935
tp936
a((lp937
S'patates'
p938
aS'c\xc5\x93ur de palmiers'
p939
aS'c\xc5\x93urs d\xe2\x80\x99artichaut'
p940
aS'pousses de lentilles'
p941
aS'coriandre'
p942
aS'no'
p943
tp944
a((lp945
S'quinoa'
p946
aS'oeuf'
p947
aS'pesto'
p948
aS'c\xc3\xa2pres'
p949
aS's\xc3\xa9same'
p950
aS'yes'
p951
tp952
a((lp953
S'riz'
p954
aS'tofu grill\xc3\xa9'
p955
aS'olives'
p956
aS'ail'
p957
aS'origan'
p958
aS'yes'
p959
tp960
a((lp961
S'nouilles chinoises'
p962
aS'chou fleur'
p963
aS'tomates fra\xc3\xaeches'
p964
aS'citron'
p965
aS'herbes de provences'
p966
aS'yes'
p967
tp968
a((lp969
S'nouilles chinoises'
p970
aS'aubergine'
p971
aS'pignons de pin'
p972
aS'roquette'
p973
aS'ciboulette'
p974
aS'yes'
p975
tp976
a((lp977
S'haricots verts'
p978
aS'comt\xc3\xa9'
p979
aS'moutarde'
p980
aS'c\xc3\xa2pres'
p981
aS'poivre'
p982
aS'almost'
p983
tp984
a((lp985
S'pois cass\xc3\xa9s'
p986
aS'aubergine'
p987
aS'sauce tomate'
p988
aS'basilic'
p989
aS'herbes de provences'
p990
aS'yes'
p991
tp992
a((lp993
S'patates douces'
p994
aS'lait de coco'
p995
aS'oignons'
p996
aS'parmesan'
p997
aS'c\xc3\xa2pres'
p998
aS'yes'
p999
tp1000
a((lp1001
S'spaghetti'
p1002
aS'chou fleur'
p1003
aS'noisettes'
p1004
aS'coriandre'
p1005
aS'ciboulette'
p1006
aS'no'
p1007
tp1008
a((lp1009
S'petits-pois'
p1010
aS'beurre de cacahu\xc3\xa8te'
p1011
aS'basilic'
p1012
aS'cumin'
p1013
aS'ail'
p1014
aS'no'
p1015
tp1016
a((lp1017
S'lentilles'
p1018
aS'aubergine'
p1019
aS'c\xc3\xa2pres'
p1020
aS'herbes de provences'
p1021
aS'ciboulette'
p1022
aS'almost'
p1023
tp1024
a((lp1025
S'petits-pois'
p1026
aS'tofu grill\xc3\xa9'
p1027
aS'pousses de lentilles'
p1028
aS'sauce tomate'
p1029
aS'pesto'
p1030
aS'yes'
p1031
tp1032
a((lp1033
S'haricots blancs/rouges'
p1034
aS'courgette'
p1035
aS'c\xc3\xa2pres'
p1036
aS'\xc3\xa9chalottes'
p1037
aS'citron'
p1038
aS'almost'
p1039
tp1040
a((lp1041
S'patates douces'
p1042
aS'seitan grill\xc3\xa9'
p1043
aS'roquette'
p1044
aS'herbes de provences'
p1045
aS'\xc3\xa9chalottes'
p1046
aS'no'
p1047
tp1048
a((lp1049
S'lasagnes'
p1050
aS'comt\xc3\xa9'
p1051
aS'c\xc5\x93ur de palmiers'
p1052
aS'pesto'
p1053
aS'\xc3\xa9chalottes'
p1054
aS'no'
p1055
tp1056
a((lp1057
S'quinoa'
p1058
aS'c\xc5\x93ur de palmiers'
p1059
aS'mozzarella'
p1060
aS'pesto'
p1061
aS'\xc3\xa9chalottes'
p1062
aS'yes'
p1063
tp1064
a((lp1065
S'pain'
p1066
aS'seitan grill\xc3\xa9'
p1067
aS'noisettes'
p1068
aS'olives'
p1069
aS's\xc3\xa9same'
p1070
aS'no'
p1071
tp1072
a((lp1073
S'patates douces'
p1074
aS'chou fleur'
p1075
aS'fromage r\xc3\xa2p\xc3\xa9'
p1076
aS'curcuma'
p1077
aS'persil'
p1078
aS'yes'
p1079
tp1080
a((lp1081
S'nouilles chinoises'
p1082
aS'oeuf'
p1083
aS'moutarde'
p1084
aS'curry'
p1085
aS'origan'
p1086
aS'no'
p1087
tp1088
a((lp1089
S'cr\xc3\xaapes'
p1090
aS'aubergine'
p1091
aS'chou fleur'
p1092
aS'pousses de lentilles'
p1093
aS'basilic'
p1094
aS'no'
p1095
tp1096
a((lp1097
S'haricots verts'
p1098
aS'amandes'
p1099
aS'noix'
p1100
aS'parmesan'
p1101
aS'cumin'
p1102
aS'no'
p1103
tp1104
a((lp1105
S'lentilles'
p1106
aS'brie'
p1107
aS'moutarde'
p1108
aS'menthe'
p1109
aS'basilic'
p1110
aS'almost'
p1111
tp1112
a((lp1113
S'petits-pois'
p1114
aS'aubergine'
p1115
aS'tofu grill\xc3\xa9'
p1116
aS'ciboulette'
p1117
aS's\xc3\xa9same'
p1118
aS'yes'
p1119
tp1120
a((lp1121
S'lasagnes'
p1122
aS'seitan grill\xc3\xa9'
p1123
aS'amandes'
p1124
aS'sauce soja'
p1125
aS'poivre'
p1126
aS'no'
p1127
tp1128
a((lp1129
S'riz'
p1130
aS'brie'
p1131
aS'roquette'
p1132
aS'parmesan'
p1133
aS'sauce soja'
p1134
aS'almost'
p1135
tp1136
a((lp1137
S'petits-pois'
p1138
aS'roquefort'
p1139
aS'fromage r\xc3\xa2p\xc3\xa9'
p1140
aS'poivre'
p1141
aS'persil'
p1142
aS'no'
p1143
tp1144
a((lp1145
S'beurre de cacahu\xc3\xa8te'
p1146
aS'courgette'
p1147
aS'poireau'
p1148
aS'oeuf'
p1149
aS'pignons de pin'
p1150
aS'no'
p1151
tp1152
a((lp1153
S'petits-pois'
p1154
aS'beurre de cacahu\xc3\xa8te'
p1155
aS'tofu grill\xc3\xa9'
p1156
aS'ail'
p1157
aS'poivre'
p1158
aS'almost'
p1159
tp1160
a((lp1161
S'petits-pois'
p1162
aS'seitan grill\xc3\xa9'
p1163
aS'parmesan'
p1164
aS'pesto'
p1165
aS'menthe'
p1166
aS'yes'
p1167
tp1168
a((lp1169
S'patates douces'
p1170
aS'aubergine'
p1171
aS'ciboulette'
p1172
aS'herbes de provences'
p1173
aS'sauce soja'
p1174
aS'no'
p1175
tp1176
a((lp1177
S'p\xc3\xa2tes'
p1178
aS'amandes'
p1179
aS'c\xc3\xa2pres'
p1180
aS'sauce tomate'
p1181
aS'pesto'
p1182
aS'almost'
p1183
tp1184
a((lp1185
S'haricots blancs/rouges'
p1186
aS'c\xc5\x93ur de palmiers'
p1187
aS'cacahu\xc3\xa8tes'
p1188
aS'c\xc3\xa2pres'
p1189
aS'basilic'
p1190
aS'almost'
p1191
tp1192
a((lp1193
S'polenta'
p1194
aS'oeuf'
p1195
aS'c\xc5\x93urs d\xe2\x80\x99artichaut'
p1196
aS'herbes de provences'
p1197
aS'basilic'
p1198
aS'almost'
p1199
tp1200
a((lp1201
S'quinoa'
p1202
aS'courgette'
p1203
aS'pousses de lentilles'
p1204
aS'sauce soja'
p1205
aS'curry'
p1206
aS'yes'
p1207
tp1208
a((lp1209
S'risotto'
p1210
aS'beurre de cacahu\xc3\xa8te'
p1211
aS'pousses de lentilles'
p1212
aS'coriandre'
p1213
aS'origan'
p1214
aS'no'
p1215
tp1216
a((lp1217
S'patates douces'
p1218
aS'fromage r\xc3\xa2p\xc3\xa9'
p1219
aS'moutarde'
p1220
aS'c\xc3\xa2pres'
p1221
aS'basilic'
p1222
aS'yes'
p1223
tp1224
a((lp1225
S'pain'
p1226
aS'beurre de cacahu\xc3\xa8te'
p1227
aS'poivron'
p1228
aS'origan'
p1229
aS'basilic'
p1230
aS'almost'
p1231
tp1232
a((lp1233
S'pitta'
p1234
aS'asperges'
p1235
aS'pesto'
p1236
aS'olives'
p1237
aS's\xc3\xa9same'
p1238
aS'almost'
p1239
tp1240
a((lp1241
S'lasagnes'
p1242
aS'camenbert'
p1243
aS'c\xc3\xa2pres'
p1244
aS'paprika'
p1245
aS'persil'
p1246
aS'no'
p1247
tp1248
a((lp1249
S'millet'
p1250
aS'seitan grill\xc3\xa9'
p1251
aS'moutarde'
p1252
aS'\xc3\xa9chalottes'
p1253
aS'basilic'
p1254
aS'almost'
p1255
tp1256
a((lp1257
S'quinoa'
p1258
aS'poireau'
p1259
aS'courgette'
p1260
aS'menthe'
p1261
aS'coriandre'
p1262
aS'yes'
p1263
tp1264
a((lp1265
S'\xc3\xa9pis de ma\xc3\xafs'
p1266
aS'chou fleur'
p1267
aS'pignons de pin'
p1268
aS'citron'
p1269
aS'coriandre'
p1270
aS'no'
p1271
tp1272
a((lp1273
S'pitta'
p1274
aS'amandes'
p1275
aS'tofu grill\xc3\xa9'
p1276
aS'parmesan'
p1277
aS'cumin'
p1278
aS'no'
p1279
tp1280
a((lp1281
S'\xc3\xa9pis de ma\xc3\xafs'
p1282
aS'courgette'
p1283
aS'roquette'
p1284
aS'poivre'
p1285
aS'origan'
p1286
aS'almost'
p1287
tp1288
a((lp1289
S'lentilles'
p1290
aS'chou fleur'
p1291
aS'cacahu\xc3\xa8tes'
p1292
aS'poivre'
p1293
aS'origan'
p1294
aS'no'
p1295
tp1296
a((lp1297
S'risotto'
p1298
aS'mozzarella'
p1299
aS'noisettes'
p1300
aS'pousses de lentilles'
p1301
aS'menthe'
p1302
aS'no'
p1303
tp1304
a((lp1305
S'oeuf'
p1306
aS'comt\xc3\xa9'
p1307
aS'aubergine'
p1308
aS'noix'
p1309
aS'pesto'
p1310
aS'yes'
p1311
tp1312
a((lp1313
S'haricots verts'
p1314
aS'fromage r\xc3\xa2p\xc3\xa9'
p1315
aS'cacahu\xc3\xa8tes'
p1316
aS'moutarde'
p1317
aS'roquette'
p1318
aS'no'
p1319
tp1320
a((lp1321
S'sarrasin'
p1322
aS'tomates s\xc3\xa9ch\xc3\xa9es'
p1323
aS'c\xc5\x93ur de palmiers'
p1324
aS'paprika'
p1325
aS'cumin'
p1326
aS'yes'
p1327
tp1328
a((lp1329
S'pitta'
p1330
aS'beurre de cacahu\xc3\xa8te'
p1331
aS'roquefort'
p1332
aS'citron'
p1333
aS'origan'
p1334
aS'no'
p1335
tp1336
a((lp1337
S'patates douces'
p1338
aS'tomates s\xc3\xa9ch\xc3\xa9es'
p1339
aS'moutarde'
p1340
aS'herbes de provences'
p1341
aS'sauce soja'
p1342
aS'almost'
p1343
tp1344
a((lp1345
S'quinoa'
p1346
aS'camenbert'
p1347
aS'roquette'
p1348
aS'sauce soja'
p1349
aS'coriandre'
p1350
aS'no'
p1351
tp1352
a((lp1353
S'galettes'
p1354
aS'tofu grill\xc3\xa9'
p1355
aS'parmesan'
p1356
aS'pousses de lentilles'
p1357
aS'c\xc3\xa2pres'
p1358
aS'no'
p1359
tp1360
a((lp1361
S'lasagnes'
p1362
aS'courgette'
p1363
aS'tomates fra\xc3\xaeches'
p1364
aS'ciboulette'
p1365
aS'curry'
p1366
aS'yes'
p1367
tp1368
a((lp1369
S'petits-pois'
p1370
aS'seitan grill\xc3\xa9'
p1371
aS'\xc3\xa9chalottes'
p1372
aS'cumin'
p1373
aS'sauce soja'
p1374
aS'yes'
p1375
tp1376
a((lp1377
S'p\xc3\xa2tes'
p1378
aS'roquefort'
p1379
aS'sauce tomate'
p1380
aS's\xc3\xa9same'
p1381
aS'menthe'
p1382
aS'yes'
p1383
tp1384
a((lp1385
S'boulgour'
p1386
aS'fromage r\xc3\xa2p\xc3\xa9'
p1387
aS'c\xc5\x93ur de palmiers'
p1388
aS'c\xc3\xa2pres'
p1389
aS'menthe'
p1390
aS'no'
p1391
tp1392
a((lp1393
S'quinoa'
p1394
aS'tomates s\xc3\xa9ch\xc3\xa9es'
p1395
aS'olives'
p1396
aS'moutarde'
p1397
aS's\xc3\xa9same'
p1398
aS'yes'
p1399
tp1400
a((lp1401
S'\xc3\xa9pis de ma\xc3\xafs'
p1402
aS'camenbert'
p1403
aS'tofu grill\xc3\xa9'
p1404
aS'menthe'
p1405
aS'paprika'
p1406
aS'no'
p1407
tp1408
a((lp1409
S'pois cass\xc3\xa9s'
p1410
aS'c\xc5\x93urs d\xe2\x80\x99artichaut'
p1411
aS'fromage r\xc3\xa2p\xc3\xa9'
p1412
aS'pesto'
p1413
aS'ciboulette'
p1414
aS'yes'
p1415
tp1416
a((lp1417
S'pois cass\xc3\xa9s'
p1418
aS'amandes'
p1419
aS'pousses de lentilles'
p1420
aS'\xc3\xa9chalottes'
p1421
aS'curry'
p1422
aS'no'
p1423
tp1424
a((lp1425
S'spaghetti'
p1426
aS'brie'
p1427
aS'piment'
p1428
aS'c\xc3\xa2pres'
p1429
aS'ciboulette'
p1430
aS'almost'
p1431
tp1432
a((lp1433
S'quinoa'
p1434
aS'chou fleur'
p1435
aS'tofu grill\xc3\xa9'
p1436
aS'roquette'
p1437
aS'curry'
p1438
aS'yes'
p1439
tp1440
a((lp1441
S'cr\xc3\xaapes'
p1442
aS'aubergine'
p1443
aS'mozzarella'
p1444
aS'pignons de pin'
p1445
aS'basilic'
p1446
aS'yes'
p1447
tp1448
a((lp1449
S'polenta'
p1450
aS'poireau'
p1451
aS'basilic'
p1452
aS'coriandre'
p1453
aS'poivre'
p1454
aS'yes'
p1455
tp1456
a((lp1457
S'\xc3\xa9pis de ma\xc3\xafs'
p1458
aS'cacahu\xc3\xa8tes'
p1459
aS'poivron'
p1460
aS'\xc3\xa9chalottes'
p1461
aS'curcuma'
p1462
aS'no'
p1463
tp1464
a((lp1465
S'\xc3\xa9pis de ma\xc3\xafs'
p1466
aS'courgette'
p1467
aS'oignons'
p1468
aS'roquette'
p1469
aS'ciboulette'
p1470
aS'no'
p1471
tp1472
a((lp1473
S'pain'
p1474
aS'poivron'
p1475
aS'c\xc5\x93urs d\xe2\x80\x99artichaut'
p1476
aS'parmesan'
p1477
aS'origan'
p1478
aS'yes'
p1479
tp1480
a((lp1481
S'pois cass\xc3\xa9s'
p1482
aS'oeuf'
p1483
aS'noix'
p1484
aS'menthe'
p1485
aS'cumin'
p1486
aS'no'
p1487
tp1488
a((lp1489
S'polenta'
p1490
aS'roquefort'
p1491
aS'piment'
p1492
aS'origan'
p1493
aS'herbes de provences'
p1494
aS'almost'
p1495
tp1496
a((lp1497
S'sarrasin'
p1498
aS'tofu grill\xc3\xa9'
p1499
aS'tomates s\xc3\xa9ch\xc3\xa9es'
p1500
aS'c\xc3\xa2pres'
p1501
aS's\xc3\xa9same'
p1502
aS'yes'
p1503
tp1504
a((lp1505
S'pain'
p1506
aS'roquefort'
p1507
aS'moutarde'
p1508
aS'c\xc3\xa2pres'
p1509
aS'coriandre'
p1510
aS'almost'
p1511
tp1512
a((lp1513
S'patates douces'
p1514
aS'tofu grill\xc3\xa9'
p1515
aS'piment'
p1516
aS'\xc3\xa9chalottes'
p1517
aS'cumin'
p1518
aS'yes'
p1519
tp1520
a((lp1521
S'riz'
p1522
aS'oeuf'
p1523
aS'c\xc5\x93ur de palmiers'
p1524
aS'curry'
p1525
aS'curcuma'
p1526
aS'no'
p1527
tp1528
a((lp1529
S'pain'
p1530
aS'tomates fra\xc3\xaeches'
p1531
aS'c\xc5\x93ur de palmiers'
p1532
aS'origan'
p1533
aS'paprika'
p1534
aS'yes'
p1535
tp1536
a((lp1537
S'patates douces'
p1538
aS'fromage r\xc3\xa2p\xc3\xa9'
p1539
aS'oignons'
p1540
aS'c\xc3\xa2pres'
p1541
aS'curcuma'
p1542
aS'almost'
p1543
tp1544
a((lp1545
S'patates douces'
p1546
aS'sauce tomate'
p1547
aS'pignons de pin'
p1548
aS'c\xc3\xa2pres'
p1549
aS'basilic'
p1550
aS'almost'
p1551
tp1552
a((lp1553
S'patates douces'
p1554
aS'chou fleur'
p1555
aS'fromage r\xc3\xa2p\xc3\xa9'
p1556
aS'curcuma'
p1557
aS'ciboulette'
p1558
aS'no'
p1559
tp1560
a((lp1561
S'patates douces'
p1562
aS'fromage r\xc3\xa2p\xc3\xa9'
p1563
aS'tomates fra\xc3\xaeches'
p1564
aS'origan'
p1565
aS'curcuma'
p1566
aS'no'
p1567
tp1568
a((lp1569
S'quinoa'
p1570
aS'comt\xc3\xa9'
p1571
aS'c\xc5\x93urs d\xe2\x80\x99artichaut'
p1572
aS'pesto'
p1573
aS'ciboulette'
p1574
aS'yes'
p1575
tp1576
a((lp1577
S'p\xc3\xa2tes'
p1578
aS'mozzarella'
p1579
aS'pesto'
p1580
aS'ciboulette'
p1581
aS'curry'
p1582
aS'no'
p1583
tp1584
a((lp1585
S'quinoa'
p1586
aS'oeuf'
p1587
aS'sauce tomate'
p1588
aS'sauce soja'
p1589
aS'cumin'
p1590
aS'yes'
p1591
tp1592
a((lp1593
S'riz'
p1594
aS'tomates fra\xc3\xaeches'
p1595
aS'c\xc5\x93urs d\xe2\x80\x99artichaut'
p1596
aS'origan'
p1597
aS'ciboulette'
p1598
aS'yes'
p1599
tp1600
a((lp1601
S'quinoa'
p1602
aS'oeuf'
p1603
aS'mozzarella'
p1604
aS'pesto'
p1605
aS'paprika'
p1606
aS'yes'
p1607
tp1608
a((lp1609
S'quinoa'
p1610
aS'asperges'
p1611
aS'tomates fra\xc3\xaeches'
p1612
aS'c\xc3\xa2pres'
p1613
aS'ciboulette'
p1614
aS'almost'
p1615
tp1616
a((lp1617
S'petits-pois'
p1618
aS'seitan grill\xc3\xa9'
p1619
aS'tomates fra\xc3\xaeches'
p1620
aS'persil'
p1621
aS'sauce soja'
p1622
aS'yes'
p1623
tp1624
a((lp1625
S'pain'
p1626
aS'c\xc5\x93ur de palmiers'
p1627
aS'tomates fra\xc3\xaeches'
p1628
aS'citron'
p1629
aS'ciboulette'
p1630
aS'almost'
p1631
tp1632
a((lp1633
S'petits-pois'
p1634
aS'seitan grill\xc3\xa9'
p1635
aS'pesto'
p1636
aS'sauce tomate'
p1637
aS'origan'
p1638
aS'almost'
p1639
tp1640
a((lp1641
S'millet'
p1642
aS'aubergine'
p1643
aS'pignons de pin'
p1644
aS'moutarde'
p1645
aS'basilic'
p1646
aS'yes'
p1647
tp1648
a((lp1649
S'quinoa'
p1650
aS'oeuf'
p1651
aS'c\xc5\x93ur de palmiers'
p1652
aS'piment'
p1653
aS'paprika'
p1654
aS'almost'
p1655
tp1656
a((lp1657
S'quinoa'
p1658
aS'oeuf'
p1659
aS'amandes'
p1660
aS'persil'
p1661
aS'sauce soja'
p1662
aS'no'
p1663
tp1664
a((lp1665
S'sarrasin'
p1666
aS'tomates fra\xc3\xaeches'
p1667
aS'c\xc5\x93urs d\xe2\x80\x99artichaut'
p1668
aS'piment'
p1669
aS'origan'
p1670
aS'yes'
p1671
tp1672
a((lp1673
S'quinoa'
p1674
aS'roquefort'
p1675
aS'cacahu\xc3\xa8tes'
p1676
aS'cumin'
p1677
aS'\xc3\xa9chalottes'
p1678
aS'no'
p1679
tp1680
a((lp1681
S'petits-pois'
p1682
aS'seitan grill\xc3\xa9'
p1683
aS'tomates fra\xc3\xaeches'
p1684
aS'origan'
p1685
aS'citron'
p1686
aS'yes'
p1687
tp1688
a((lp1689
S'quinoa'
p1690
aS'seitan grill\xc3\xa9'
p1691
aS'tomates fra\xc3\xaeches'
p1692
aS'pesto'
p1693
aS'herbes de provences'
p1694
aS'yes'
p1695
tp1696
a((lp1697
S'spaghetti'
p1698
aS'comt\xc3\xa9'
p1699
aS'c\xc5\x93urs d\xe2\x80\x99artichaut'
p1700
aS'citron'
p1701
aS'ciboulette'
p1702
aS'yes'
p1703
tp1704
a((lp1705
S'patates'
p1706
aS'tomates fra\xc3\xaeches'
p1707
aS'roquette'
p1708
aS'citron'
p1709
aS'herbes de provences'
p1710
aS'almost'
p1711
tp1712
a((lp1713
S'petits-pois'
p1714
aS'oeuf'
p1715
aS'citron'
p1716
aS'paprika'
p1717
aS'herbes de provences'
p1718
aS'yes'
p1719
tp1720
a((lp1721
S'patates'
p1722
aS'tomates fra\xc3\xaeches'
p1723
aS'parmesan'
p1724
aS'persil'
p1725
aS'sauce soja'
p1726
aS'almost'
p1727
tp1728
a((lp1729
S'haricots verts'
p1730
aS'aubergine'
p1731
aS'tomates fra\xc3\xaeches'
p1732
aS'pesto'
p1733
aS'origan'
p1734
aS'yes'
p1735
tp1736
a((lp1737
S'riz'
p1738
aS'tomates fra\xc3\xaeches'
p1739
aS'oignons'
p1740
aS'origan'
p1741
aS'cumin'
p1742
aS'almost'
p1743
tp1744
a((lp1745
S'spaghetti'
p1746
aS'seitan grill\xc3\xa9'
p1747
aS'c\xc5\x93urs d\xe2\x80\x99artichaut'
p1748
aS'ciboulette'
p1749
aS'herbes de provences'
p1750
aS'no'
p1751
tp1752
a((lp1753
S'lasagnes'
p1754
aS'courgette'
p1755
aS'tomates fra\xc3\xaeches'
p1756
aS'basilic'
p1757
aS'sauce soja'
p1758
aS'almost'
p1759
tp1760
a((lp1761
S'quinoa'
p1762
aS'courgette'
p1763
aS'c\xc5\x93urs d\xe2\x80\x99artichaut'
p1764
aS'cumin'
p1765
aS'sauce soja'
p1766
aS'almost'
p1767
tp1768
a((lp1769
S'haricots verts'
p1770
aS'oeuf'
p1771
aS'pignons de pin'
p1772
aS'pesto'
p1773
aS'paprika'
p1774
aS'yes'
p1775
tp1776
a((lp1777
S'quinoa'
p1778
aS'c\xc5\x93urs d\xe2\x80\x99artichaut'
p1779
aS'tomates s\xc3\xa9ch\xc3\xa9es'
p1780
aS'parmesan'
p1781
aS'sauce soja'
p1782
aS'yes'
p1783
tp1784
a((lp1785
S'nouilles chinoises'
p1786
aS'chou fleur'
p1787
aS'roquette'
p1788
aS'ciboulette'
p1789
aS'citron'
p1790
aS'no'
p1791
tp1792
a((lp1793
S'quinoa'
p1794
aS'tomates fra\xc3\xaeches'
p1795
aS'piment'
p1796
aS'parmesan'
p1797
aS'menthe'
p1798
aS'yes'
p1799
tp1800
a((lp1801
S'nouilles chinoises'
p1802
aS'poivron'
p1803
aS'c\xc5\x93ur de palmiers'
p1804
aS'tomates fra\xc3\xaeches'
p1805
aS'origan'
p1806
aS'almost'
p1807
tp1808
a((lp1809
S'quinoa'
p1810
aS'tomates s\xc3\xa9ch\xc3\xa9es'
p1811
aS'poivron'
p1812
aS'pesto'
p1813
aS'cumin'
p1814
aS'yes'
p1815
tp1816
a((lp1817
S'quinoa'
p1818
aS'tomates s\xc3\xa9ch\xc3\xa9es'
p1819
aS'tofu grill\xc3\xa9'
p1820
aS'moutarde'
p1821
aS'basilic'
p1822
aS'yes'
p1823
tp1824
a((lp1825
S'quinoa'
p1826
aS'seitan grill\xc3\xa9'
p1827
aS'parmesan'
p1828
aS'pignons de pin'
p1829
aS'persil'
p1830
aS'almost'
p1831
tp1832
a((lp1833
S'millet'
p1834
aS'seitan grill\xc3\xa9'
p1835
aS'parmesan'
p1836
aS'pesto'
p1837
aS'persil'
p1838
aS'yes'
p1839
tp1840
a((lp1841
S'p\xc3\xa2tes'
p1842
aS'tomates fra\xc3\xaeches'
p1843
aS'sauce tomate'
p1844
aS'basilic'
p1845
aS'sauce soja'
p1846
aS'yes'
p1847
tp1848
a((lp1849
S'quinoa'
p1850
aS'asperges'
p1851
aS'parmesan'
p1852
aS'menthe'
p1853
aS'ail'
p1854
aS'almost'
p1855
tp1856
a((lp1857
S'quinoa'
p1858
aS'seitan grill\xc3\xa9'
p1859
aS'noix'
p1860
aS'pesto'
p1861
aS'curcuma'
p1862
aS'yes'
p1863
tp1864
a((lp1865
S'boulgour'
p1866
aS'c\xc5\x93urs d\xe2\x80\x99artichaut'
p1867
aS'tomates fra\xc3\xaeches'
p1868
aS'piment'
p1869
aS'paprika'
p1870
aS'yes'
p1871
tp1872
a((lp1873
S'haricots verts'
p1874
aS'amandes'
p1875
aS'mozzarella'
p1876
aS'sauce tomate'
p1877
aS'pesto'
p1878
aS'yes'
p1879
tp1880
a((lp1881
S'patates'
p1882
aS'oeuf'
p1883
aS'tomates fra\xc3\xaeches'
p1884
aS'paprika'
p1885
aS'\xc3\xa9chalottes'
p1886
aS'yes'
p1887
tp1888
a((lp1889
S'sarrasin'
p1890
aS'tomates fra\xc3\xaeches'
p1891
aS'roquette'
p1892
aS'ciboulette'
p1893
aS'citron'
p1894
aS'yes'
p1895
tp1896
a((lp1897
S'quinoa'
p1898
aS'beurre de cacahu\xc3\xa8te'
p1899
aS'mozzarella'
p1900
aS'persil'
p1901
aS'sauce soja'
p1902
aS'no'
p1903
tp1904
a((lp1905
S'haricots verts'
p1906
aS'oeuf'
p1907
aS'comt\xc3\xa9'
p1908
aS'menthe'
p1909
aS'paprika'
p1910
aS'yes'
p1911
tp1912
a((lp1913
S'haricots blancs/rouges'
p1914
aS'oeuf'
p1915
aS'pignons de pin'
p1916
aS'ciboulette'
p1917
aS'citron'
p1918
aS'no'
p1919
tp1920
a((lp1921
S'lasagnes'
p1922
aS'noisettes'
p1923
aS'tomates fra\xc3\xaeches'
p1924
aS'origan'
p1925
aS'coriandre'
p1926
aS'no'
p1927
tp1928
a((lp1929
S'petits-pois'
p1930
aS'oeuf'
p1931
aS'sauce tomate'
p1932
aS'parmesan'
p1933
aS'menthe'
p1934
aS'almost'
p1935
tp1936
a((lp1937
S'petits-pois'
p1938
aS'beurre de cacahu\xc3\xa8te'
p1939
aS'piment'
p1940
aS'roquette'
p1941
aS'ail'
p1942
aS'no'
p1943
tp1944
a((lp1945
S'pitta'
p1946
aS'comt\xc3\xa9'
p1947
aS'tofu grill\xc3\xa9'
p1948
aS'coriandre'
p1949
aS'ail'
p1950
aS'no'
p1951
tp1952
a((lp1953
S'patates douces'
p1954
aS'comt\xc3\xa9'
p1955
aS'c\xc5\x93ur de palmiers'
p1956
aS'sauce soja'
p1957
aS'citron'
p1958
aS'no'
p1959
tp1960
a((lp1961
S'galettes'
p1962
aS'seitan grill\xc3\xa9'
p1963
aS'olives'
p1964
aS'pignons de pin'
p1965
aS'origan'
p1966
aS'no'
p1967
tp1968
a((lp1969
S'\xc3\xa9pis de ma\xc3\xafs'
p1970
aS'seitan grill\xc3\xa9'
p1971
aS'c\xc5\x93urs d\xe2\x80\x99artichaut'
p1972
aS'pesto'
p1973
aS'menthe'
p1974
aS'yes'
p1975
tp1976
a((lp1977
S'patates douces'
p1978
aS'poivron'
p1979
aS'moutarde'
p1980
aS'sauce soja'
p1981
aS'curcuma'
p1982
aS'no'
p1983
tp1984
a((lp1985
S'risotto'
p1986
aS'tomates fra\xc3\xaeches'
p1987
aS'parmesan'
p1988
aS'menthe'
p1989
aS'curry'
p1990
aS'yes'
p1991
tp1992
a((lp1993
S'pain'
p1994
aS'courgette'
p1995
aS'c\xc5\x93urs d\xe2\x80\x99artichaut'
p1996
aS'piment'
p1997
aS'persil'
p1998
aS'no'
p1999
tp2000
a((lp2001
S'lasagnes'
p2002
aS'poireau'
p2003
aS'roquette'
p2004
aS'ciboulette'
p2005
aS'ail'
p2006
aS'no'
p2007
tp2008
a((lp2009
S'petits-pois'
p2010
aS'noisettes'
p2011
aS'pousses de lentilles'
p2012
aS'ail'
p2013
aS'origan'
p2014
aS'no'
p2015
tp2016
a((lp2017
S'riz'
p2018
aS'noisettes'
p2019
aS'lait de coco'
p2020
aS'c\xc3\xa2pres'
p2021
aS'persil'
p2022
aS'no'
p2023
tp2024
a((lp2025
S'haricots blancs/rouges'
p2026
aS'brie'
p2027
aS'origan'
p2028
aS'ciboulette'
p2029
aS'sauce soja'
p2030
aS'no'
p2031
tp2032
a((lp2033
S'millet'
p2034
aS'comt\xc3\xa9'
p2035
aS'olives'
p2036
aS'origan'
p2037
aS'poivre'
p2038
aS'yes'
p2039
tp2040
a((lp2041
S'quinoa'
p2042
aS'aubergine'
p2043
aS'c\xc3\xa2pres'
p2044
aS'\xc3\xa9chalottes'
p2045
aS'poivre'
p2046
aS'almost'
p2047
tp2048
a((lp2049
S'risotto'
p2050
aS'comt\xc3\xa9'
p2051
aS'basilic'
p2052
aS'\xc3\xa9chalottes'
p2053
aS'sauce soja'
p2054
aS'almost'
p2055
tp2056
a((lp2057
S'quinoa'
p2058
aS'roquefort'
p2059
aS'c\xc5\x93ur de palmiers'
p2060
aS'sauce tomate'
p2061
aS'poivre'
p2062
aS'yes'
p2063
tp2064
a((lp2065
S'polenta'
p2066
aS'lait de coco'
p2067
aS'pousses de lentilles'
p2068
aS'sauce tomate'
p2069
aS'origan'
p2070
aS'no'
p2071
tp2072
a((lp2073
S'pois-chiches'
p2074
aS'amandes'
p2075
aS'poivron'
p2076
aS'citron'
p2077
aS'persil'
p2078
aS'no'
p2079
tp2080
a((lp2081
S'spaghetti'
p2082
aS'seitan grill\xc3\xa9'
p2083
aS'parmesan'
p2084
aS'menthe'
p2085
aS'curry'
p2086
aS'no'
p2087
tp2088
a((lp2089
S'quinoa'
p2090
aS'mozzarella'
p2091
aS'tomates fra\xc3\xaeches'
p2092
aS'pesto'
p2093
aS's\xc3\xa9same'
p2094
aS'yes'
p2095
tp2096
a((lp2097
S'lentilles'
p2098
aS'c\xc5\x93urs d\xe2\x80\x99artichaut'
p2099
aS'tomates fra\xc3\xaeches'
p2100
aS'paprika'
p2101
aS'origan'
p2102
aS'no'
p2103
tp2104
a((lp2105
S'quinoa'
p2106
aS'tomates s\xc3\xa9ch\xc3\xa9es'
p2107
aS'lait de coco'
p2108
aS'parmesan'
p2109
aS'pesto'
p2110
aS'no'
p2111
tp2112
a((lp2113
S'quinoa'
p2114
aS'noix'
p2115
aS'c\xc5\x93urs d\xe2\x80\x99artichaut'
p2116
aS'pesto'
p2117
aS'sauce soja'
p2118
aS'yes'
p2119
tp2120
a((lp2121
S'haricots verts'
p2122
aS'oeuf'
p2123
aS'roquette'
p2124
aS'pignons de pin'
p2125
aS'paprika'
p2126
aS'almost'
p2127
tp2128
a((lp2129
S'quinoa'
p2130
aS'aubergine'
p2131
aS'pesto'
p2132
aS'parmesan'
p2133
aS'persil'
p2134
aS'yes'
p2135
tp2136
a((lp2137
S'quinoa'
p2138
aS'comt\xc3\xa9'
p2139
aS'pesto'
p2140
aS'roquette'
p2141
aS'cumin'
p2142
aS'no'
p2143
tp2144
a((lp2145
S'quinoa'
p2146
aS'brie'
p2147
aS'tomates fra\xc3\xaeches'
p2148
aS'pesto'
p2149
aS'ciboulette'
p2150
aS'yes'
p2151
tp2152
a((lp2153
S'quinoa'
p2154
aS'tomates fra\xc3\xaeches'
p2155
aS'c\xc5\x93urs d\xe2\x80\x99artichaut'
p2156
aS'pesto'
p2157
aS'origan'
p2158
aS'yes'
p2159
tp2160
a((lp2161
S'quinoa'
p2162
aS'c\xc5\x93urs d\xe2\x80\x99artichaut'
p2163
aS'tomates fra\xc3\xaeches'
p2164
aS'pesto'
p2165
aS'piment'
p2166
aS'yes'
p2167
tp2168
a((lp2169
S'quinoa'
p2170
aS'aubergine'
p2171
aS'tomates fra\xc3\xaeches'
p2172
aS'paprika'
p2173
aS'origan'
p2174
aS'almost'
p2175
tp2176
a((lp2177
S'quinoa'
p2178
aS'tomates fra\xc3\xaeches'
p2179
aS'pignons de pin'
p2180
aS'pousses de lentilles'
p2181
aS'pesto'
p2182
aS'yes'
p2183
tp2184
a((lp2185
S'quinoa'
p2186
aS'seitan grill\xc3\xa9'
p2187
aS'noisettes'
p2188
aS'pesto'
p2189
aS'persil'
p2190
aS'yes'
p2191
tp2192
a((lp2193
S'haricots verts'
p2194
aS'courgette'
p2195
aS'poireau'
p2196
aS'pesto'
p2197
aS'coriandre'
p2198
aS'almost'
p2199
tp2200
a((lp2201
S'pain'
p2202
aS'oeuf'
p2203
aS'c\xc3\xa2pres'
p2204
aS'paprika'
p2205
aS'herbes de provences'
p2206
aS'no'
p2207
tp2208
a((lp2209
S'haricots verts'
p2210
aS'comt\xc3\xa9'
p2211
aS'noix'
p2212
aS'noisettes'
p2213
aS'paprika'
p2214
aS'yes'
p2215
tp2216
a((lp2217
S'nouilles chinoises'
p2218
aS'tomates fra\xc3\xaeches'
p2219
aS'sauce tomate'
p2220
aS'roquette'
p2221
aS'persil'
p2222
aS'no'
p2223
tp2224
a((lp2225
S'boulgour'
p2226
aS'c\xc5\x93urs d\xe2\x80\x99artichaut'
p2227
aS'tomates s\xc3\xa9ch\xc3\xa9es'
p2228
aS'sauce tomate'
p2229
aS'cumin'
p2230
aNI36
S'06af673b'
p2231
tp2232
a((lp2233
S'petits-pois'
p2234
aS'seitan grill\xc3\xa9'
p2235
aS'tomates fra\xc3\xaeches'
p2236
aS'origan'
p2237
aS'menthe'
p2238
aNI81
S'06af673a'
p2239
tp2240
a((lp2241
S'patates douces'
p2242
aS'seitan grill\xc3\xa9'
p2243
aS'c\xc3\xa2pres'
p2244
aS'sauce tomate'
p2245
aS'curcuma'
p2246
aNI30
S'06af673c'
p2247
tp2248
a((lp2249
S'pois-chiches'
p2250
aS'c\xc5\x93urs d\xe2\x80\x99artichaut'
p2251
aS'pousses de lentilles'
p2252
aS'origan'
p2253
aS'paprika'
p2254
aNI31
S'06af672c'
p2255
tp2256
a((lp2257
S'patates douces'
p2258
aS'poireau'
p2259
aS'pignons de pin'
p2260
aS'basilic'
p2261
aS'sauce soja'
p2262
aNI30
S'06af662c'
p2263
tp2264
a((lp2265
S'quinoa'
p2266
aS'beurre de cacahu\xc3\xa8te'
p2267
aS'tomates fra\xc3\xaeches'
p2268
aS'origan'
p2269
aS'herbes de provences'
p2270
aNI74
S'06af612c'
p2271
tp2272
a((lp2273
S'petits-pois'
p2274
aS'tomates s\xc3\xa9ch\xc3\xa9es'
p2275
aS'pousses de lentilles'
p2276
aS'pesto'
p2277
aS'persil'
p2278
aNI32
S'06af613c'
p2279
tp2280
a((lp2281
S'pitta'
p2282
aS'tomates fra\xc3\xaeches'
p2283
aS'mozzarella'
p2284
aS'pesto'
p2285
aS'sauce tomate'
p2286
aNI57
S'06af113c'
p2287
tp2288
a((lp2289
S'petits-pois'
p2290
aS'brie'
p2291
aS'sauce tomate'
p2292
aS'pesto'
p2293
aS'curcuma'
p2294
aNI33
S'01af113c'
p2295
tp2296
a((lp2297
S'sarrasin'
p2298
aS'aubergine'
p2299
aS'pignons de pin'
p2300
aS'herbes de provences'
p2301
aS'basilic'
p2302
aNI42
S'89dsqj'
p2303
tp2304
a((lp2305
S'polenta'
p2306
aS'tomates fra\xc3\xaeches'
p2307
aS'pesto'
p2308
aS'moutarde'
p2309
aS'herbes de provences'
p2310
aNI44
S'89ddsqj'
p2311
tp2312
a((lp2313
S'petits-pois'
p2314
aS'noix'
p2315
aS'pignons de pin'
p2316
aS'paprika'
p2317
aS'sauce soja'
p2318
aNI31
S'89dddsqj'
p2319
tp2320
a((lp2321
S'haricots verts'
p2322
aS'beurre de cacahu\xc3\xa8te'
p2323
aS'comt\xc3\xa9'
p2324
aS'pignons de pin'
p2325
aS'paprika'
p2326
aNI40
S'89dsdsqj'
p2327
tp2328
a((lp2329
S'p\xc3\xa2tes'
p2330
aS'chou fleur'
p2331
aS'sauce tomate'
p2332
aS'origan'
p2333
aS'cumin'
p2334
aNI30
S'89ddsdsqj'
p2335
tp2336
a((lp2337
S'pain'
p2338
aS'mozzarella'
p2339
aS'amandes'
p2340
aS'pesto'
p2341
aS'paprika'
p2342
aNI39
S'89sdsdsqj'
p2343
tp2344
a((lp2345
S'quinoa'
p2346
aS'mozzarella'
p2347
aS'tomates s\xc3\xa9ch\xc3\xa9es'
p2348
aS'tomates fra\xc3\xaeches'
p2349
aS's\xc3\xa9same'
p2350
aNI81
S'89sdsdsdqj'
p2351
tp2352
a((lp2353
S'quinoa'
p2354
aS'mozzarella'
p2355
aS'c\xc5\x93urs d\xe2\x80\x99artichaut'
p2356
aS'sauce soja'
p2357
aS's\xc3\xa9same'
p2358
aNI65
S'06b4842e'
p2359
tp2360
a((lp2361
S'haricots verts'
p2362
aS'c\xc5\x93urs d\xe2\x80\x99artichaut'
p2363
aS'tomates s\xc3\xa9ch\xc3\xa9es'
p2364
aS'pesto'
p2365
aS'cumin'
p2366
aNI58
S'1636fd13'
p2367
tp2368
a((lp2369
S'haricots verts'
p2370
aS'oeuf'
p2371
aS'poivron'
p2372
aS'paprika'
p2373
aS'coriandre'
p2374
aNI48
S'a80da189'
p2375
tp2376
a((lp2377
S'petits-pois'
p2378
aS'seitan grill\xc3\xa9'
p2379
aS'poivron'
p2380
aS'\xc3\xa9chalottes'
p2381
aS'persil'
p2382
aNI38
S'55043cc4'
p2383
tp2384
a((lp2385
S'spaghetti'
p2386
aS'oeuf'
p2387
aS'tomates fra\xc3\xaeches'
p2388
aS'curry'
p2389
aS'ciboulette'
p2390
aNI41
S'5a360ecc'
p2391
tp2392
a((lp2393
S'p\xc3\xa2tes'
p2394
aS'mozzarella'
p2395
aS'sauce tomate'
p2396
aS'pignons de pin'
p2397
aS'menthe'
p2398
aNI30
S'26ad23ee'
p2399
tp2400
a((lp2401
S'petits-pois'
p2402
aS'c\xc5\x93urs d\xe2\x80\x99artichaut'
p2403
aS'tomates s\xc3\xa9ch\xc3\xa9es'
p2404
aS'origan'
p2405
aS'paprika'
p2406
aNI41
S'f3abf752'
p2407
tp2408
a((lp2409
S'haricots blancs/rouges'
p2410
aS'tomates fra\xc3\xaeches'
p2411
aS'c\xc5\x93urs d\xe2\x80\x99artichaut'
p2412
aS'paprika'
p2413
aS's\xc3\xa9same'
p2414
aNI34
S'6a2970c3'
p2415
tp2416
a((lp2417
S'millet'
p2418
aS'tomates fra\xc3\xaeches'
p2419
aS'c\xc3\xa2pres'
p2420
aS'pousses de lentilles'
p2421
aS'pesto'
p2422
aNI43
S'b87a7dcb'
p2423
tp2424
a((lp2425
S'quinoa'
p2426
aS'courgette'
p2427
aS'tomates fra\xc3\xaeches'
p2428
aS'citron'
p2429
aS'\xc3\xa9chalottes'
p2430
aNI65
S'62331661'
p2431
tp2432
a((lp2433
S'sarrasin'
p2434
aS'tomates fra\xc3\xaeches'
p2435
aS'olives'
p2436
aS'basilic'
p2437
aS'sauce soja'
p2438
aNI33
S'7bbe7b5d'
p2439
tp2440
a((lp2441
S'nouilles chinoises'
p2442
aS'courgette'
p2443
aS'tomates fra\xc3\xaeches'
p2444
aS'pignons de pin'
p2445
aS'paprika'
p2446
aNI31
S'3ad8fa23'
p2447
tp2448
a((lp2449
S'quinoa'
p2450
aS'oeuf'
p2451
aS'cacahu\xc3\xa8tes'
p2452
aS'cumin'
p2453
aS'coriandre'
p2454
aNI32
S'0e67c161'
p2455
tp2456
a((lp2457
S'quinoa'
p2458
aS'oeuf'
p2459
aS'cacahu\xc3\xa8tes'
p2460
aS'cumin'
p2461
aS'coriandre'
p2462
aVno
p2463
I32
S'0e67c161'
p2464
tp2465
a((lp2466
S'quinoa'
p2467
aS'brie'
p2468
aS'pesto'
p2469
aS'sauce tomate'
p2470
aS'ciboulette'
p2471
aNI95
S'2dd85980'
p2472
tp2473
a((lp2474
S'quinoa'
p2475
aS'brie'
p2476
aS'pesto'
p2477
aS'sauce tomate'
p2478
aS'ciboulette'
p2479
aVyes
p2480
I95
S'2dd85980'
p2481
tp2482
a((lp2483
S'quinoa'
p2484
aS'brie'
p2485
aS'pesto'
p2486
aS'sauce tomate'
p2487
aS'ciboulette'
p2488
aVyes
p2489
I95
S'2dd85980'
p2490
tp2491
a((lp2492
S'quinoa'
p2493
aS'poivron'
p2494
aS'fromage r\xc3\xa2p\xc3\xa9'
p2495
aS'persil'
p2496
aS'sauce soja'
p2497
aNI41
S'1d73a5b1'
p2498
tp2499
a((lp2500
S'quinoa'
p2501
aS'poivron'
p2502
aS'fromage r\xc3\xa2p\xc3\xa9'
p2503
aS'persil'
p2504
aS'sauce soja'
p2505
aVyes
p2506
I41
S'1d73a5b1'
p2507
tp2508
a((lp2509
S'quinoa'
p2510
aS'poivron'
p2511
aS'fromage r\xc3\xa2p\xc3\xa9'
p2512
aS'persil'
p2513
aS'sauce soja'
p2514
aVyes
p2515
I41
S'1d73a5b1'
p2516
tp2517
a((lp2518
S'quinoa'
p2519
aS'poivron'
p2520
aS'fromage r\xc3\xa2p\xc3\xa9'
p2521
aS'persil'
p2522
aS'sauce soja'
p2523
aVyes
p2524
I41
S'1d73a5b1'
p2525
tp2526
a((lp2527
S'quinoa'
p2528
aS'poivron'
p2529
aS'fromage r\xc3\xa2p\xc3\xa9'
p2530
aS'persil'
p2531
aS'sauce soja'
p2532
aVyes
p2533
I41
S'1d73a5b1'
p2534
tp2535
a((lp2536
S'quinoa'
p2537
aS'poivron'
p2538
aS'fromage r\xc3\xa2p\xc3\xa9'
p2539
aS'persil'
p2540
aS'sauce soja'
p2541
aVyes
p2542
I41
S'1d73a5b1'
p2543
tp2544
a((lp2545
S'quinoa'
p2546
aS'poivron'
p2547
aS'fromage r\xc3\xa2p\xc3\xa9'
p2548
aS'persil'
p2549
aS'sauce soja'
p2550
aVyes
p2551
I41
S'1d73a5b1'
p2552
tp2553
a((lp2554
S'quinoa'
p2555
aS'poivron'
p2556
aS'fromage r\xc3\xa2p\xc3\xa9'
p2557
aS'persil'
p2558
aS'sauce soja'
p2559
aVyes
p2560
I41
S'1d73a5b1'
p2561
tp2562
a((lp2563
S'quinoa'
p2564
aS'poivron'
p2565
aS'fromage r\xc3\xa2p\xc3\xa9'
p2566
aS'persil'
p2567
aS'sauce soja'
p2568
aValmost
p2569
I41
S'1d73a5b1'
p2570
tp2571
a((lp2572
S'quinoa'
p2573
aS'poivron'
p2574
aS'fromage r\xc3\xa2p\xc3\xa9'
p2575
aS'persil'
p2576
aS'sauce soja'
p2577
aValmost
p2578
I41
S'1d73a5b1'
p2579
tp2580
a((lp2581
S'quinoa'
p2582
aS'poivron'
p2583
aS'fromage r\xc3\xa2p\xc3\xa9'
p2584
aS'persil'
p2585
aS'sauce soja'
p2586
aValmost
p2587
I41
S'1d73a5b1'
p2588
tp2589
a((lp2590
S'quinoa'
p2591
aS'comt\xc3\xa9'
p2592
aS'tomates fra\xc3\xaeches'
p2593
aS'oignons'
p2594
aS'ail'
p2595
aNI35
S'b3777435'
p2596
tp2597
a((lp2598
S'polenta'
p2599
aS'noix'
p2600
aS'parmesan'
p2601
aS'sauce soja'
p2602
aS'persil'
p2603
aNI49
S'993b7402'
p2604
tp2605
a((lp2606
S'lentilles'
p2607
aS'tomates fra\xc3\xaeches'
p2608
aS'moutarde'
p2609
aS'pesto'
p2610
aS'persil'
p2611
aNI46
S'5d4e1119'
p2612
tp2613
a((lp2614
S'lentilles'
p2615
aS'tomates fra\xc3\xaeches'
p2616
aS'moutarde'
p2617
aS'pesto'
p2618
aS'persil'
p2619
aVyes
p2620
I46
S'5d4e1119'
p2621
tp2622
a((lp2623
S'pain'
p2624
aS'lait de coco'
p2625
aS'tomates fra\xc3\xaeches'
p2626
aS'moutarde'
p2627
aS'origan'
p2628
aNI46
S'a0bca0b2'
p2629
tp2630
a((lp2631
S'boulgour'
p2632
aS'oeuf'
p2633
aS'sauce soja'
p2634
aS'cumin'
p2635
aS'persil'
p2636
aNI51
S'6d33d316'
p2637
tp2638
a((lp2639
S'p\xc3\xa2tes'
p2640
aS'oeuf'
p2641
aS'sauce tomate'
p2642
aS'pesto'
p2643
aS'poivre'
p2644
aNI45
S'72856f38'
p2645
tp2646
a((lp2647
S'pois-chiches'
p2648
aS'poivron'
p2649
aS'noix'
p2650
aS'origan'
p2651
aS'sauce soja'
p2652
aNI42
S'616af355'
p2653
tp2654
a((lp2655
S'boulgour'
p2656
aS'tofu grill\xc3\xa9'
p2657
aS'pesto'
p2658
aS'persil'
p2659
aS'sauce soja'
p2660
aNI47
S'49390b8e'
p2661
tp2662
a((lp2663
S'millet'
p2664
aS'tomates fra\xc3\xaeches'
p2665
aS'mozzarella'
p2666
aS'pesto'
p2667
aS'curcuma'
p2668
aNI51
S'a0e4a244'
p2669
tp2670
a((lp2671
S'quinoa'
p2672
aS'chou fleur'
p2673
aS'mozzarella'
p2674
aS'pousses de lentilles'
p2675
aS'persil'
p2676
aNI61
S'a61b7d82'
p2677
tp2678
a((lp2679
S'p\xc3\xa2tes'
p2680
aS'oeuf'
p2681
aS'sauce tomate'
p2682
aS'pesto'
p2683
aS'poivre'
p2684
aVno
p2685
I45
S'72856f38'
p2686
tp2687
a((lp2688
S'spaghetti'
p2689
aS'noisettes'
p2690
aS'pesto'
p2691
aS'parmesan'
p2692
aS'persil'
p2693
aNI42
S'10063bc4'
p2694
tp2695
a((lp2696
S'pain'
p2697
aS'lait de coco'
p2698
aS'tomates fra\xc3\xaeches'
p2699
aS'moutarde'
p2700
aS'origan'
p2701
aVno
p2702
I46
S'a0bca0b2'
p2703
tp2704
a((lp2705
S'quinoa'
p2706
aS'noix'
p2707
aS'c\xc5\x93urs d\xe2\x80\x99artichaut'
p2708
aS'coriandre'
p2709
aS'ciboulette'
p2710
aNI51
S'2cb0cf11'
p2711
tp2712
a((lp2713
S'spaghetti'
p2714
aS'noisettes'
p2715
aS'pesto'
p2716
aS'parmesan'
p2717
aS'persil'
p2718
aVyes
p2719
I42
S'10063bc4'
p2720
tp2721
a((lp2722
S'quinoa'
p2723
aS'noix'
p2724
aS'c\xc5\x93urs d\xe2\x80\x99artichaut'
p2725
aS'coriandre'
p2726
aS'ciboulette'
p2727
aValmost
p2728
I51
S'2cb0cf11'
p2729
tp2730
a((lp2731
S'quinoa'
p2732
aS'seitan grill\xc3\xa9'
p2733
aS'poivron'
p2734
aS'origan'
p2735
aS'basilic'
p2736
aNI68
S'057e61ba'
p2737
tp2738
a((lp2739
S'pain'
p2740
aS'tomates fra\xc3\xaeches'
p2741
aS'c\xc5\x93ur de palmiers'
p2742
aS'origan'
p2743
aS'curcuma'
p2744
aNI48
S'09bf5839'
p2745
tp2746
a((lp2747
S'quinoa'
p2748
aS'seitan grill\xc3\xa9'
p2749
aS'poivron'
p2750
aS'origan'
p2751
aS'basilic'
p2752
aValmost
p2753
I68
S'057e61ba'
p2754
tp2755
a((lp2756
S'quinoa'
p2757
aS'c\xc5\x93ur de palmiers'
p2758
aS'noisettes'
p2759
aS'pesto'
p2760
aS'menthe'
p2761
aNI84
S'6b96b429'
p2762
tp2763
a((lp2764
S'pain'
p2765
aS'tomates fra\xc3\xaeches'
p2766
aS'c\xc5\x93ur de palmiers'
p2767
aS'origan'
p2768
aS'curcuma'
p2769
aVyes
p2770
I48
S'09bf5839'
p2771
tp2772
a((lp2773
S'quinoa'
p2774
aS'c\xc5\x93ur de palmiers'
p2775
aS'noisettes'
p2776
aS'pesto'
p2777
aS'menthe'
p2778
aVyes
p2779
I84
S'6b96b429'
p2780
tp2781
a((lp2782
S'quinoa'
p2783
aS'c\xc5\x93ur de palmiers'
p2784
aS'c\xc5\x93urs d\xe2\x80\x99artichaut'
p2785
aS'tomates fra\xc3\xaeches'
p2786
aS'poivre'
p2787
aNI91
S'a4b47fbf'
p2788
tp2789
a((lp2790
S'riz'
p2791
aS'c\xc5\x93urs d\xe2\x80\x99artichaut'
p2792
aS'pesto'
p2793
aS'paprika'
p2794
aS'origan'
p2795
aNI71
S'c810c40c'
p2796
tp2797
a((lp2798
S'quinoa'
p2799
aS'c\xc5\x93ur de palmiers'
p2800
aS'c\xc5\x93urs d\xe2\x80\x99artichaut'
p2801
aS'tomates fra\xc3\xaeches'
p2802
aS'poivre'
p2803
aVyes
p2804
I91
S'a4b47fbf'
p2805
tp2806
a((lp2807
S'galettes'
p2808
aS'c\xc5\x93ur de palmiers'
p2809
aS'tomates fra\xc3\xaeches'
p2810
aS'moutarde'
p2811
aS'ciboulette'
p2812
aNI40
S'4e28dc6b'
p2813
tp2814
a((lp2815
S'petits-pois'
p2816
aS'mozzarella'
p2817
aS'noix'
p2818
aS'pesto'
p2819
aS'curcuma'
p2820
aNI44
S'f32fbd16'
p2821
tp2822
a((lp2823
S'petits-pois'
p2824
aS'mozzarella'
p2825
aS'noix'
p2826
aS'pesto'
p2827
aS'curcuma'
p2828
aValmost
p2829
I44
S'f32fbd16'
p2830
tp2831
a((lp2832
S'quinoa'
p2833
aS'chou fleur'
p2834
aS'c\xc5\x93ur de palmiers'
p2835
aS'sauce tomate'
p2836
aS'curcuma'
p2837
aNI43
S'bf0ac5cc'
p2838
tp2839
a((lp2840
S'quinoa'
p2841
aS'chou fleur'
p2842
aS'mozzarella'
p2843
aS'pousses de lentilles'
p2844
aS'persil'
p2845
aVyes
p2846
I61
S'a61b7d82'
p2847
tp2848
a((lp2849
S'quinoa'
p2850
aS'chou fleur'
p2851
aS'mozzarella'
p2852
aS'pousses de lentilles'
p2853
aS'persil'
p2854
aVyes
p2855
I61
S'a61b7d82'
p2856
tp2857
a((lp2858
S'quinoa'
p2859
aS'chou fleur'
p2860
aS'mozzarella'
p2861
aS'pousses de lentilles'
p2862
aS'persil'
p2863
aVyes
p2864
I61
S'a61b7d82'
p2865
tp2866
a((lp2867
S'quinoa'
p2868
aS'oeuf'
p2869
aS'piment'
p2870
aS'menthe'
p2871
aS'sauce soja'
p2872
aNI76
S'd2b8f46c'
p2873
tp2874
a((lp2875
S'nouilles chinoises'
p2876
aS'seitan grill\xc3\xa9'
p2877
aS'pesto'
p2878
aS'c\xc3\xa2pres'
p2879
aS'citron'
p2880
aNI40
S'a0a67d99'
p2881
tp2882
a((lp2883
S'pois cass\xc3\xa9s'
p2884
aS'tomates fra\xc3\xaeches'
p2885
aS'pesto'
p2886
aS'curcuma'
p2887
aS'persil'
p2888
aNI70
S'12cba42b'
p2889
tp2890
a((lp2891
S'quinoa'
p2892
aS'comt\xc3\xa9'
p2893
aS'oignons'
p2894
aS'moutarde'
p2895
aS'pesto'
p2896
aNI77
S'9aec1508'
p2897
tp2898
a((lp2899
S'lentilles'
p2900
aS'tomates fra\xc3\xaeches'
p2901
aS'pesto'
p2902
aS'pousses de lentilles'
p2903
aS'origan'
p2904
aNI83
S'd6cbf031'
p2905
tp2906
a((lp2907
S'quinoa'
p2908
aS'beurre de cacahu\xc3\xa8te'
p2909
aS'poivron'
p2910
aS'citron'
p2911
aS'cumin'
p2912
aNI41
S'0c98434f'
p2913
tp2914
a((lp2915
S'quinoa'
p2916
aS'oeuf'
p2917
aS'piment'
p2918
aS'menthe'
p2919
aS'sauce soja'
p2920
aVyes
p2921
I76
S'd2b8f46c'
p2922
tp2923
a((lp2924
S'quinoa'
p2925
aS'seitan grill\xc3\xa9'
p2926
aS'pousses de lentilles'
p2927
aS'poivre'
p2928
aS'herbes de provences'
p2929
aNI41
S'65eb02c7'
p2930
tp2931
a((lp2932
S'quinoa'
p2933
aS'fromage r\xc3\xa2p\xc3\xa9'
p2934
aS'cacahu\xc3\xa8tes'
p2935
aS'c\xc3\xa2pres'
p2936
aS'origan'
p2937
aNI50
S'b799dbcf'
p2938
tp2939
a((lp2940
S'millet'
p2941
aS'cacahu\xc3\xa8tes'
p2942
aS'tomates fra\xc3\xaeches'
p2943
aS'parmesan'
p2944
aS'menthe'
p2945
aNI47
S'f14f41b7'
p2946
tp2947
a((lp2948
S'quinoa'
p2949
aS'aubergine'
p2950
aS'c\xc5\x93urs d\xe2\x80\x99artichaut'
p2951
aS'basilic'
p2952
aS'citron'
p2953
aNI48
S'a873b937'
p2954
tp2955
a((lp2956
S'quinoa'
p2957
aS'c\xc5\x93ur de palmiers'
p2958
aS'oignons'
p2959
aS'piment'
p2960
aS'paprika'
p2961
aNI42
S'42374a3c'
p2962
tp2963
a((lp2964
S'quinoa'
p2965
aS'roquefort'
p2966
aS'mozzarella'
p2967
aS'olives'
p2968
aS'ciboulette'
p2969
aNI40
S'97becd56'
p2970
tp2971
a((lp2972
S'patates'
p2973
aS'poivron'
p2974
aS'pesto'
p2975
aS'sauce tomate'
p2976
aS'origan'
p2977
aNI43
S'02e4cd32'
p2978
tp2979
a((lp2980
S'riz'
p2981
aS'fromage r\xc3\xa2p\xc3\xa9'
p2982
aS'olives'
p2983
aS'ail'
p2984
aS'sauce soja'
p2985
aNI41
S'aef6e1ab'
p2986
tp2987
a((lp2988
S'quinoa'
p2989
aS'chou fleur'
p2990
aS'mozzarella'
p2991
aS'pousses de lentilles'
p2992
aS'persil'
p2993
aVyes
p2994
I61
S'a61b7d82'
p2995
tp2996
a((lp2997
S'quinoa'
p2998
aS'chou fleur'
p2999
aS'mozzarella'
p3000
aS'pousses de lentilles'
p3001
aS'persil'
p3002
aVyes
p3003
I61
S'a61b7d82'
p3004
tp3005
a((lp3006
S'quinoa'
p3007
aS'chou fleur'
p3008
aS'mozzarella'
p3009
aS'pousses de lentilles'
p3010
aS'persil'
p3011
aValmost
p3012
I61
S'a61b7d82'
p3013
tp3014
a((lp3015
S'petits-pois'
p3016
aS'fromage r\xc3\xa2p\xc3\xa9'
p3017
aS'mozzarella'
p3018
aS'curry'
p3019
aS'persil'
p3020
aNI49
S'252391d5'
p3021
tp3022
a((lp3023
S'petits-pois'
p3024
aS'fromage r\xc3\xa2p\xc3\xa9'
p3025
aS'mozzarella'
p3026
aS'curry'
p3027
aS'persil'
p3028
aVno
p3029
I49
S'252391d5'
p3030
tp3031
a((lp3032
S'petits-pois'
p3033
aS'fromage r\xc3\xa2p\xc3\xa9'
p3034
aS'mozzarella'
p3035
aS'curry'
p3036
aS'persil'
p3037
aVno
p3038
I49
S'252391d5'
p3039
tp3040
a((lp3041
S'quinoa'
p3042
aS'mozzarella'
p3043
aS'tofu grill\xc3\xa9'
p3044
aS's\xc3\xa9same'
p3045
aS'persil'
p3046
aNI120
S'5ab13558'
p3047
tp3048
a((lp3049
S'quinoa'
p3050
aS'brie'
p3051
aS'pesto'
p3052
aS'menthe'
p3053
aS'paprika'
p3054
aNI108
S'a899846c'
p3055
tp3056
a((lp3057
S'quinoa'
p3058
aS'lait de coco'
p3059
aS'c\xc5\x93urs d\xe2\x80\x99artichaut'
p3060
aS'olives'
p3061
aS'ciboulette'
p3062
aNI48
S'1aa5d557'
p3063
tp3064
a((lp3065
S'lentilles'
p3066
aS'c\xc5\x93ur de palmiers'
p3067
aS'pignons de pin'
p3068
aS'persil'
p3069
aS'sauce soja'
p3070
aNI41
S'b091543c'
p3071
tp3072
a((lp3073
S'haricots blancs/rouges'
p3074
aS'chou fleur'
p3075
aS'poivron'
p3076
aS'persil'
p3077
aS'basilic'
p3078
aNI49
S'31933ac0'
p3079
tp3080
a((lp3081
S'p\xc3\xa2tes'
p3082
aS'amandes'
p3083
aS'pesto'
p3084
aS'sauce tomate'
p3085
aS'basilic'
p3086
aNI46
S'28b480ca'
p3087
tp3088
a((lp3089
S'quinoa'
p3090
aS'asperges'
p3091
aS'tomates s\xc3\xa9ch\xc3\xa9es'
p3092
aS'sauce soja'
p3093
aS'curcuma'
p3094
aNI72
S'3bd02e63'
p3095
tp3096
a((lp3097
S'quinoa'
p3098
aS'camenbert'
p3099
aS'amandes'
p3100
aS'persil'
p3101
aS's\xc3\xa9same'
p3102
aNI61
S'0dafd8b2'
p3103
tp3104
a((lp3105
S'quinoa'
p3106
aS'camenbert'
p3107
aS'amandes'
p3108
aS'persil'
p3109
aS's\xc3\xa9same'
p3110
aVno
p3111
I61
S'0dafd8b2'
p3112
tp3113
a((lp3114
S'haricots verts'
p3115
aS'tomates fra\xc3\xaeches'
p3116
aS'tomates s\xc3\xa9ch\xc3\xa9es'
p3117
aS'pignons de pin'
p3118
aS'origan'
p3119
aNI44
S'd40c826c'
p3120
tp3121
a((lp3122
S'haricots verts'
p3123
aS'tomates fra\xc3\xaeches'
p3124
aS'tomates s\xc3\xa9ch\xc3\xa9es'
p3125
aS'pignons de pin'
p3126
aS'origan'
p3127
aValmost
p3128
I44
S'd40c826c'
p3129
tp3130
a((lp3131
S'quinoa'
p3132
aS'tomates s\xc3\xa9ch\xc3\xa9es'
p3133
aS'pousses de lentilles'
p3134
aS'roquette'
p3135
aS'menthe'
p3136
aNI55
S'e7d7acc3'
p3137
tp3138
a((lp3139
S'boulgour'
p3140
aS'tomates fra\xc3\xaeches'
p3141
aS'parmesan'
p3142
aS'piment'
p3143
aS'menthe'
p3144
aNI55
S'03a5ed59'
p3145
tp3146
a((lp3147
S'boulgour'
p3148
aS'tomates fra\xc3\xaeches'
p3149
aS'parmesan'
p3150
aS'piment'
p3151
aS'menthe'
p3152
aValmost
p3153
I55
S'03a5ed59'
p3154
tp3155
a((lp3156
S'boulgour'
p3157
aS'tomates fra\xc3\xaeches'
p3158
aS'parmesan'
p3159
aS'piment'
p3160
aS'menthe'
p3161
aValmost
p3162
I55
S'03a5ed59'
p3163
tp3164
a((lp3165
S'boulgour'
p3166
aS'tomates fra\xc3\xaeches'
p3167
aS'parmesan'
p3168
aS'piment'
p3169
aS'menthe'
p3170
aValmost
p3171
I55
S'03a5ed59'
p3172
tp3173
a((lp3174
S'quinoa'
p3175
aS'brie'
p3176
aS'roquette'
p3177
aS'citron'
p3178
aS'ciboulette'
p3179
aNI52
S'12e950a3'
p3180
tp3181
a((lp3182
S'quinoa'
p3183
aS'brie'
p3184
aS'roquette'
p3185
aS'citron'
p3186
aS'ciboulette'
p3187
aVyes
p3188
I52
S'12e950a3'
p3189
tp3190
a((lp3191
S'quinoa'
p3192
aS'amandes'
p3193
aS'poivron'
p3194
aS'pesto'
p3195
aS'coriandre'
p3196
aNI88
S'0efad674'
p3197
tp3198
a((lp3199
S'quinoa'
p3200
aS'amandes'
p3201
aS'poivron'
p3202
aS'pesto'
p3203
aS'coriandre'
p3204
aVyes
p3205
I88
S'0efad674'
p3206
tp3207
a((lp3208
S'quinoa'
p3209
aS'aubergine'
p3210
aS'noix'
p3211
aS'pesto'
p3212
aS'sauce soja'
p3213
aNI134
S'035e618f'
p3214
tp3215
a((lp3216
S'quinoa'
p3217
aS'aubergine'
p3218
aS'noix'
p3219
aS'pesto'
p3220
aS'sauce soja'
p3221
aVyes
p3222
I134
S'035e618f'
p3223
tp3224
a((lp3225
S'polenta'
p3226
aS'tomates fra\xc3\xaeches'
p3227
aS'parmesan'
p3228
aS'pesto'
p3229
aS'curry'
p3230
aNI58
S'80aeebbc'
p3231
tp3232
a((lp3233
S'polenta'
p3234
aS'tomates fra\xc3\xaeches'
p3235
aS'parmesan'
p3236
aS'pesto'
p3237
aS'curry'
p3238
aValmost
p3239
I58
S'80aeebbc'
p3240
tp3241
a((lp3242
S'\xc3\xa9pis de ma\xc3\xafs'
p3243
aS'c\xc5\x93urs d\xe2\x80\x99artichaut'
p3244
aS'tomates fra\xc3\xaeches'
p3245
aS'curry'
p3246
aS'citron'
p3247
aNI43
S'e957fcb8'
p3248
tp3249
a((lp3250
S'lentilles'
p3251
aS'oeuf'
p3252
aS'pignons de pin'
p3253
aS'pesto'
p3254
aS'sauce soja'
p3255
aNI47
S'c7b8bd1f'
p3256
tp3257
a((lp3258
S'lentilles'
p3259
aS'oeuf'
p3260
aS'pignons de pin'
p3261
aS'pesto'
p3262
aS'sauce soja'
p3263
aVyes
p3264
I47
S'c7b8bd1f'
p3265
tp3266
a((lp3267
S'quinoa'
p3268
aS'oeuf'
p3269
aS'noisettes'
p3270
aS'piment'
p3271
aS'citron'
p3272
aNI43
S'e854a550'
p3273
tp3274
a((lp3275
S'quinoa'
p3276
aS'mozzarella'
p3277
aS'noix'
p3278
aS'oignons'
p3279
aS'roquette'
p3280
aNI41
S'ceec81da'
p3281
tp3282
a((lp3283
S'spaghetti'
p3284
aS'chou fleur'
p3285
aS'poivron'
p3286
aS'ciboulette'
p3287
aS'persil'
p3288
aNI50
S'735e178a'
p3289
tp3290
a((lp3291
S'quinoa'
p3292
aS'seitan grill\xc3\xa9'
p3293
aS'sauce tomate'
p3294
aS'paprika'
p3295
aS'curcuma'
p3296
aNI48
S'a997c0fc'
p3297
tp3298
a((lp3299
S'quinoa'
p3300
aS'noix'
p3301
aS'mozzarella'
p3302
aS'pesto'
p3303
aS'persil'
p3304
aNI205
S'8a04156d'
p3305
tp3306
a((lp3307
S'quinoa'
p3308
aS'noix'
p3309
aS'mozzarella'
p3310
aS'pesto'
p3311
aS'persil'
p3312
aVyes
p3313
I205
S'8a04156d'
p3314
tp3315
a((lp3316
S'quinoa'
p3317
aS'comt\xc3\xa9'
p3318
aS'tomates fra\xc3\xaeches'
p3319
aS'pousses de lentilles'
p3320
aS'herbes de provences'
p3321
aNI79
S'783ea9d6'
p3322
tp3323
a((lp3324
S'quinoa'
p3325
aS'comt\xc3\xa9'
p3326
aS'tomates fra\xc3\xaeches'
p3327
aS'pousses de lentilles'
p3328
aS'herbes de provences'
p3329
aVyes
p3330
I79
S'783ea9d6'
p3331
tp3332
a((lp3333
S'quinoa'
p3334
aS'poivron'
p3335
aS'fromage r\xc3\xa2p\xc3\xa9'
p3336
aS'cumin'
p3337
aS'persil'
p3338
aNI207
S'1d49fffb'
p3339
tp3340
a((lp3341
S'quinoa'
p3342
aS'oeuf'
p3343
aS'noisettes'
p3344
aS'sauce tomate'
p3345
aS'sauce soja'
p3346
aNI102
S'5988326d'
p3347
tp3348
a((lp3349
S'petits-pois'
p3350
aS'brie'
p3351
aS'pesto'
p3352
aS'sauce soja'
p3353
aS'paprika'
p3354
aNI48
S'45dec471'
p3355
tp3356
a((lp3357
S'quinoa'
p3358
aS'c\xc5\x93urs d\xe2\x80\x99artichaut'
p3359
aS'moutarde'
p3360
aS'oignons'
p3361
aS'poivre'
p3362
aNI46
S'914183b5'
p3363
tp3364
a((lp3365
S'nouilles chinoises'
p3366
aS'tomates fra\xc3\xaeches'
p3367
aS'pesto'
p3368
aS'parmesan'
p3369
aS'c\xc3\xa2pres'
p3370
aNI63
S'd201020b'
p3371
tp3372
a((lp3373
S'millet'
p3374
aS'pesto'
p3375
aS'pignons de pin'
p3376
aS'sauce tomate'
p3377
aS'basilic'
p3378
aNI58
S'bc423cce'
p3379
tp3380
a((lp3381
S'haricots verts'
p3382
aS'comt\xc3\xa9'
p3383
aS'c\xc5\x93urs d\xe2\x80\x99artichaut'
p3384
aS'pesto'
p3385
aS'oignons'
p3386
aNI60
S'1ecd859c'
p3387
tp3388
a((lp3389
S'riz'
p3390
aS'tomates s\xc3\xa9ch\xc3\xa9es'
p3391
aS'parmesan'
p3392
aS'pesto'
p3393
aS'origan'
p3394
aNI46
S'2930dcfe'
p3395
tp3396
a((lp3397
S'\xc3\xa9pis de ma\xc3\xafs'
p3398
aS'mozzarella'
p3399
aS'noix'
p3400
aS'pesto'
p3401
aS'pousses de lentilles'
p3402
aNI69
S'b3a0dd39'
p3403
tp3404
a((lp3405
S'quinoa'
p3406
aS'amandes'
p3407
aS'pesto'
p3408
aS'oignons'
p3409
aS's\xc3\xa9same'
p3410
aNI83
S'e83a19e6'
p3411
tp3412
a((lp3413
S'quinoa'
p3414
aS'mozzarella'
p3415
aS'noix'
p3416
aS'oignons'
p3417
aS'roquette'
p3418
aValmost
p3419
I41
S'ceec81da'
p3420
tp3421
a((lp3422
S'risotto'
p3423
aS'tomates fra\xc3\xaeches'
p3424
aS'pesto'
p3425
aS'persil'
p3426
aS'\xc3\xa9chalottes'
p3427
aNI72
S'6bfd8fe8'
p3428
tp3429
a((lp3430
S'quinoa'
p3431
aS'noisettes'
p3432
aS'parmesan'
p3433
aS'pignons de pin'
p3434
aS's\xc3\xa9same'
p3435
aNI42
S'28d7323f'
p3436
tp3437
a((lp3438
S'quinoa'
p3439
aS'seitan grill\xc3\xa9'
p3440
aS'mozzarella'
p3441
aS'roquette'
p3442
aS'citron'
p3443
aNI63
S'7b403432'
p3444
tp3445
a((lp3446
S'quinoa'
p3447
aS'seitan grill\xc3\xa9'
p3448
aS'noisettes'
p3449
aS'olives'
p3450
aS'menthe'
p3451
aNI41
S'efc3409a'
p3452
tp3453
a((lp3454
S'boulgour'
p3455
aS'tomates fra\xc3\xaeches'
p3456
aS'piment'
p3457
aS's\xc3\xa9same'
p3458
aS'paprika'
p3459
aNI59
S'41b1d47b'
p3460
tp3461
a((lp3462
S'quinoa'
p3463
aS'poivron'
p3464
aS'pesto'
p3465
aS'parmesan'
p3466
aS'ail'
p3467
aNI129
S'0932af55'
p3468
tp3469
a((lp3470
S'lentilles'
p3471
aS'comt\xc3\xa9'
p3472
aS'pignons de pin'
p3473
aS'pesto'
p3474
aS'ciboulette'
p3475
aNI65
S'18fb3c12'
p3476
tp3477
a((lp3478
S'riz'
p3479
aS'tomates fra\xc3\xaeches'
p3480
aS'olives'
p3481
aS'ciboulette'
p3482
aS'origan'
p3483
aNI76
S'202a7035'
p3484
tp3485
a((lp3486
S'sarrasin'
p3487
aS'seitan grill\xc3\xa9'
p3488
aS'parmesan'
p3489
aS's\xc3\xa9same'
p3490
aS'persil'
p3491
aNI40
S'45b92521'
p3492
tp3493
a((lp3494
S'quinoa'
p3495
aS'asperges'
p3496
aS'pignons de pin'
p3497
aS'ciboulette'
p3498
aS'origan'
p3499
aNI45
S'b3656d25'
p3500
tp3501
a((lp3502
S'quinoa'
p3503
aS'c\xc5\x93urs d\xe2\x80\x99artichaut'
p3504
aS'oignons'
p3505
aS'c\xc3\xa2pres'
p3506
aS's\xc3\xa9same'
p3507
aNI48
S'f830558b'
p3508
tp3509
a((lp3510
S'pois cass\xc3\xa9s'
p3511
aS'tomates fra\xc3\xaeches'
p3512
aS'fromage r\xc3\xa2p\xc3\xa9'
p3513
aS'ciboulette'
p3514
aS'herbes de provences'
p3515
aNI45
S'1ea107ca'
p3516
tp3517
a((lp3518
S'pois cass\xc3\xa9s'
p3519
aS'tomates fra\xc3\xaeches'
p3520
aS'fromage r\xc3\xa2p\xc3\xa9'
p3521
aS'ciboulette'
p3522
aS'herbes de provences'
p3523
aValmost
p3524
I45
S'1ea107ca'
p3525
tp3526
a((lp3527
S'millet'
p3528
aS'c\xc5\x93ur de palmiers'
p3529
aS'tomates fra\xc3\xaeches'
p3530
aS'piment'
p3531
aS'citron'
p3532
aNI48
S'97791ecb'
p3533
tp3534
a((lp3535
S'spaghetti'
p3536
aS'tomates fra\xc3\xaeches'
p3537
aS'fromage r\xc3\xa2p\xc3\xa9'
p3538
aS'pesto'
p3539
aS'menthe'
p3540
aNI55
S'055ef770'
p3541
tp3542
a((lp3543
S'spaghetti'
p3544
aS'tomates fra\xc3\xaeches'
p3545
aS'sauce tomate'
p3546
aS'origan'
p3547
aS'\xc3\xa9chalottes'
p3548
aNI47
S'3907d352'
p3549
tp3550
a((lp3551
S'millet'
p3552
aS'cacahu\xc3\xa8tes'
p3553
aS'parmesan'
p3554
aS'persil'
p3555
aS'poivre'
p3556
aNI40
S'2cf8a5e9'
p3557
tp3558
a((lp3559
S'quinoa'
p3560
aS'mozzarella'
p3561
aS'olives'
p3562
aS'pesto'
p3563
aS'poivre'
p3564
aNI120
S'e1c26b7d'
p3565
tp3566
a((lp3567
S'quinoa'
p3568
aS'poireau'
p3569
aS'pousses de lentilles'
p3570
aS'c\xc3\xa2pres'
p3571
aS'curcuma'
p3572
aNI41
S'01b274c9'
p3573
tp3574
a((lp3575
S'quinoa'
p3576
aS'fromage r\xc3\xa2p\xc3\xa9'
p3577
aS'tofu grill\xc3\xa9'
p3578
aS'ciboulette'
p3579
aS'origan'
p3580
aNI77
S'982b9ba7'
p3581
tp3582
a((lp3583
S'quinoa'
p3584
aS'poivron'
p3585
aS'tomates fra\xc3\xaeches'
p3586
aS'c\xc5\x93urs d\xe2\x80\x99artichaut'
p3587
aS'curcuma'
p3588
aNI114
S'0d757179'
p3589
tp3590
a((lp3591
S'quinoa'
p3592
aS'brie'
p3593
aS'pesto'
p3594
aS'oignons'
p3595
aS's\xc3\xa9same'
p3596
aNI99
S'25067fcf'
p3597
tp3598
a((lp3599
S'quinoa'
p3600
aS'tofu grill\xc3\xa9'
p3601
aS'tomates s\xc3\xa9ch\xc3\xa9es'
p3602
aS'piment'
p3603
aS'ail'
p3604
aNI46
S'b33d4a49'
p3605
tp3606
a((lp3607
S'galettes'
p3608
aS'oeuf'
p3609
aS'poivron'
p3610
aS'persil'
p3611
aS'paprika'
p3612
aNI52
S'628e810a'
p3613
tp3614
a((lp3615
S'quinoa'
p3616
aS'poireau'
p3617
aS'pousses de lentilles'
p3618
aS'c\xc3\xa2pres'
p3619
aS'curcuma'
p3620
aValmost
p3621
I41
S'01b274c9'
p3622
tp3623
a((lp3624
S'petits-pois'
p3625
aS'oeuf'
p3626
aS'c\xc3\xa2pres'
p3627
aS'pesto'
p3628
aS'sauce soja'
p3629
aNI64
S'ba3cc905'
p3630
tp3631
a((lp3632
S'quinoa'
p3633
aS'chou fleur'
p3634
aS'mozzarella'
p3635
aS'pousses de lentilles'
p3636
aS'persil'
p3637
aValmost
p3638
I61
S'a61b7d82'
p3639
tp3640
a((lp3641
S'quinoa'
p3642
aS'chou fleur'
p3643
aS'mozzarella'
p3644
aS'pousses de lentilles'
p3645
aS'persil'
p3646
aValmost
p3647
I61
S'a61b7d82'
p3648
tp3649
a((lp3650
S'quinoa'
p3651
aS'comt\xc3\xa9'
p3652
aS'fromage r\xc3\xa2p\xc3\xa9'
p3653
aS'cumin'
p3654
aS's\xc3\xa9same'
p3655
aNI52
S'c048a71c'
p3656
tp3657
a((lp3658
S'quinoa'
p3659
aS'comt\xc3\xa9'
p3660
aS'fromage r\xc3\xa2p\xc3\xa9'
p3661
aS'cumin'
p3662
aS's\xc3\xa9same'
p3663
aVyes
p3664
I52
S'c048a71c'
p3665
tp3666
a((lp3667
S'spaghetti'
p3668
aS'tomates fra\xc3\xaeches'
p3669
aS'sauce tomate'
p3670
aS'origan'
p3671
aS'coriandre'
p3672
aNI40
S'665af5d8'
p3673
tp3674
a((lp3675
S'quinoa'
p3676
aS'c\xc5\x93urs d\xe2\x80\x99artichaut'
p3677
aS'lait de coco'
p3678
aS'origan'
p3679
aS'ciboulette'
p3680
aNI68
S'a1b94b55'
p3681
tp3682
a((lp3683
S'quinoa'
p3684
aS'c\xc5\x93urs d\xe2\x80\x99artichaut'
p3685
aS'lait de coco'
p3686
aS'origan'
p3687
aS'ciboulette'
p3688
aVno
p3689
I68
S'a1b94b55'
p3690
tp3691
a((lp3692
S'quinoa'
p3693
aS'asperges'
p3694
aS'poivron'
p3695
aS'pignons de pin'
p3696
aS'curcuma'
p3697
aNI47
S'5134eb8d'
p3698
tp3699
a((lp3700
S'\xc3\xa9pis de ma\xc3\xafs'
p3701
aS'oeuf'
p3702
aS'pesto'
p3703
aS'pignons de pin'
p3704
aS'menthe'
p3705
aNI48
S'a319998d'
p3706
tp3707
a((lp3708
S'haricots verts'
p3709
aS'comt\xc3\xa9'
p3710
aS'mozzarella'
p3711
aS'pousses de lentilles'
p3712
aS'citron'
p3713
aNI61
S'67d4f6a2'
p3714
tp3715
a((lp3716
S'patates'
p3717
aS'tomates fra\xc3\xaeches'
p3718
aS'moutarde'
p3719
aS'paprika'
p3720
aS'herbes de provences'
p3721
aNI57
S'6f59ff37'
p3722
tp3723
a((lp3724
S'quinoa'
p3725
aS'tofu grill\xc3\xa9'
p3726
aS'poivron'
p3727
aS'roquette'
p3728
aS'sauce soja'
p3729
aNI119
S'7afdc160'
p3730
tp3731
a((lp3732
S'patates'
p3733
aS'tomates fra\xc3\xaeches'
p3734
aS'noisettes'
p3735
aS'pousses de lentilles'
p3736
aS'persil'
p3737
aNI55
S'08b6df6c'
p3738
tp3739
a((lp3740
S'patates'
p3741
aS'seitan grill\xc3\xa9'
p3742
aS'pesto'
p3743
aS'basilic'
p3744
aS'sauce soja'
p3745
aNI46
S'259f590d'
p3746
tp3747
a((lp3748
S'patates'
p3749
aS'seitan grill\xc3\xa9'
p3750
aS'pesto'
p3751
aS'basilic'
p3752
aS'sauce soja'
p3753
aVyes
p3754
I46
S'259f590d'
p3755
tp3756
a((lp3757
S'quinoa'
p3758
aS'chou fleur'
p3759
aS'tomates s\xc3\xa9ch\xc3\xa9es'
p3760
aS'olives'
p3761
aS'coriandre'
p3762
aNI45
S'859d67e9'
p3763
tp3764
a((lp3765
S'quinoa'
p3766
aS'comt\xc3\xa9'
p3767
aS'mozzarella'
p3768
aS'cumin'
p3769
aS'coriandre'
p3770
aNI58
S'123aa761'
p3771
tp3772
a((lp3773
S'quinoa'
p3774
aS'asperges'
p3775
aS'pesto'
p3776
aS'ail'
p3777
aS'origan'
p3778
aNI93
S'a27f6953'
p3779
tp3780
a((lp3781
S'quinoa'
p3782
aS'asperges'
p3783
aS'pesto'
p3784
aS'ail'
p3785
aS'origan'
p3786
aValmost
p3787
I93
S'a27f6953'
p3788
tp3789
a((lp3790
S'risotto'
p3791
aS'tomates fra\xc3\xaeches'
p3792
aS'parmesan'
p3793
aS'sauce soja'
p3794
aS'basilic'
p3795
aNI58
S'22e65dd4'
p3796
tp3797
a((lp3798
S'quinoa'
p3799
aS'poireau'
p3800
aS'pesto'
p3801
aS'basilic'
p3802
aS'origan'
p3803
aNI108
S'a1c8a672'
p3804
tp3805
a((lp3806
S'quinoa'
p3807
aS'poireau'
p3808
aS'pesto'
p3809
aS'basilic'
p3810
aS'origan'
p3811
aVyes
p3812
I108
S'a1c8a672'
p3813
tp3814
a((lp3815
S'petits-pois'
p3816
aS'noisettes'
p3817
aS'c\xc5\x93urs d\xe2\x80\x99artichaut'
p3818
aS'sauce soja'
p3819
aS'persil'
p3820
aNI53
S'dc030ac1'
p3821
tp3822
a((lp3823
S'galettes'
p3824
aS'fromage r\xc3\xa2p\xc3\xa9'
p3825
aS'tomates s\xc3\xa9ch\xc3\xa9es'
p3826
aS'poivron'
p3827
aS'cumin'
p3828
aNI53
S'cdf8b474'
p3829
tp3830
a((lp3831
S'galettes'
p3832
aS'fromage r\xc3\xa2p\xc3\xa9'
p3833
aS'tomates s\xc3\xa9ch\xc3\xa9es'
p3834
aS'poivron'
p3835
aS'cumin'
p3836
aValmost
p3837
I53
S'cdf8b474'
p3838
tp3839
a((lp3840
S'quinoa'
p3841
aS'noix'
p3842
aS'pesto'
p3843
aS'piment'
p3844
aS'sauce soja'
p3845
aNI172
S'2760fca9'
p3846
tp3847
a((lp3848
S'quinoa'
p3849
aS'poivron'
p3850
aS'mozzarella'
p3851
aS'\xc3\xa9chalottes'
p3852
aS'persil'
p3853
aNI167
S'c721a410'
p3854
tp3855
a((lp3856
S'millet'
p3857
aS'aubergine'
p3858
aS'sauce tomate'
p3859
aS'pignons de pin'
p3860
aS'origan'
p3861
aNI43
S'62980f10'
p3862
tp3863
a((lp3864
S'patates douces'
p3865
aS'mozzarella'
p3866
aS'pesto'
p3867
aS'sauce soja'
p3868
aS'ciboulette'
p3869
aNI50
S'0855a91d'
p3870
tp3871
a((lp3872
S'haricots blancs/rouges'
p3873
aS'c\xc5\x93urs d\xe2\x80\x99artichaut'
p3874
aS'sauce tomate'
p3875
aS'pesto'
p3876
aS'ciboulette'
p3877
aNI73
S'85eb7eba'
p3878
tp3879
a((lp3880
S'quinoa'
p3881
aS'noix'
p3882
aS'tofu grill\xc3\xa9'
p3883
aS'pesto'
p3884
aS'paprika'
p3885
aNI128
S'374fa5bb'
p3886
tp3887
a((lp3888
S'boulgour'
p3889
aS'c\xc5\x93ur de palmiers'
p3890
aS'poivron'
p3891
aS'moutarde'
p3892
aS'menthe'
p3893
aS'no'
p3894
I4
S'886ba0b9'
p3895
tp3896
a((lp3897
S'sarrasin'
p3898
aS'noix'
p3899
aS'tomates fra\xc3\xaeches'
p3900
aS'oignons'
p3901
aS'basilic'
p3902
aS'yes'
p3903
I23
S'86466075'
p3904
tp3905
a((lp3906
S'spaghetti'
p3907
aS'cacahu\xc3\xa8tes'
p3908
aS'pignons de pin'
p3909
aS'pesto'
p3910
aS'basilic'
p3911
aS'yes'
p3912
I31
S'284468d7'
p3913
tp3914
a((lp3915
S'pain'
p3916
aS'camenbert'
p3917
aS'amandes'
p3918
aS'origan'
p3919
aS'cumin'
p3920
aS'yes'
p3921
I15
S'5276de19'
p3922
tp3923
a((lp3924
S'roquefort'
p3925
aS'aubergine'
p3926
aS'poireau'
p3927
aS'fromage r\xc3\xa2p\xc3\xa9'
p3928
aS'c\xc3\xa2pres'
p3929
aS'no'
p3930
I3
S'33785f98'
p3931
tp3932
a((lp3933
S'spaghetti'
p3934
aS'poireau'
p3935
aS'sauce soja'
p3936
aS'citron'
p3937
aS'herbes de provences'
p3938
aS'yes'
p3939
I15
S'91d4019a'
p3940
tp3941
a((lp3942
S'\xc3\xa9pis de ma\xc3\xafs'
p3943
aS'courgette'
p3944
aS'noisettes'
p3945
aS'cumin'
p3946
aS'citron'
p3947
aS'almost'
p3948
I2
S'20b9e593'
p3949
tp3950
a((lp3951
S'cr\xc3\xaapes'
p3952
aS'aubergine'
p3953
aS'lait de coco'
p3954
aS'sauce tomate'
p3955
aS'sauce soja'
p3956
aS'no'
p3957
I9
S'9abf4d47'
p3958
tp3959
a((lp3960
S'boulgour'
p3961
aS'tomates s\xc3\xa9ch\xc3\xa9es'
p3962
aS'pousses de lentilles'
p3963
aS'paprika'
p3964
aS'ail'
p3965
aS'almost'
p3966
I21
S'f5d02005'
p3967
tp3968
a((lp3969
S'cr\xc3\xaapes'
p3970
aS'seitan grill\xc3\xa9'
p3971
aS'sauce tomate'
p3972
aS'roquette'
p3973
aS's\xc3\xa9same'
p3974
aS'no'
p3975
I1
S'1c7d39ba'
p3976
tp3977
a((lp3978
S'pois cass\xc3\xa9s'
p3979
aS'chou fleur'
p3980
aS'c\xc5\x93urs d\xe2\x80\x99artichaut'
p3981
aS'menthe'
p3982
aS'persil'
p3983
aS'no'
p3984
I35
S'c635088f'
p3985
tp3986
a((lp3987
S'petits-pois'
p3988
aS'roquefort'
p3989
aS'tofu grill\xc3\xa9'
p3990
aS'citron'
p3991
aS'curry'
p3992
aS'almost'
p3993
I15
S'932b32d1'
p3994
tp3995
a((lp3996
S'nouilles chinoises'
p3997
aS'roquefort'
p3998
aS'roquette'
p3999
aS'pignons de pin'
p4000
aS'sauce soja'
p4001
aS'almost'
p4002
I18
S'e8829e7b'
p4003
tp4004
a((lp4005
S'galettes'
p4006
aS'c\xc5\x93ur de palmiers'
p4007
aS'cacahu\xc3\xa8tes'
p4008
aS'noisettes'
p4009
aS'sauce soja'
p4010
aS'no'
p4011
I3
S'd348ff21'
p4012
tp4013
a((lp4014
S'petits-pois'
p4015
aS'chou fleur'
p4016
aS's\xc3\xa9same'
p4017
aS'sauce soja'
p4018
aS'ciboulette'
p4019
aS'almost'
p4020
I19
S'956283a6'
p4021
tp4022
a((lp4023
S'risotto'
p4024
aS'tofu grill\xc3\xa9'
p4025
aS'noisettes'
p4026
aS's\xc3\xa9same'
p4027
aS'citron'
p4028
aS'yes'
p4029
I6
S'5a37d357'
p4030
tp4031
a((lp4032
S'p\xc3\xa2tes'
p4033
aS'roquefort'
p4034
aS'parmesan'
p4035
aS'sauce tomate'
p4036
aS'poivre'
p4037
aS'yes'
p4038
I27
S'20ee902f'
p4039
tp4040
a((lp4041
S'lasagnes'
p4042
aS'c\xc5\x93urs d\xe2\x80\x99artichaut'
p4043
aS'noix'
p4044
aS'citron'
p4045
aS'curry'
p4046
aS'no'
p4047
I12
S'731eced3'
p4048
tp4049
a((lp4050
S'millet'
p4051
aS'c\xc5\x93ur de palmiers'
p4052
aS'noix'
p4053
aS'parmesan'
p4054
aS'curcuma'
p4055
aS'almost'
p4056
I11
S'f272c82f'
p4057
tp4058
a((lp4059
S'haricots verts'
p4060
aS'poireau'
p4061
aS'noisettes'
p4062
aS'moutarde'
p4063
aS'basilic'
p4064
aS'yes'
p4065
I23
S'ad285471'
p4066
tp4067
a((lp4068
S'p\xc3\xa2tes'
p4069
aS'camenbert'
p4070
aS'c\xc3\xa2pres'
p4071
aS'pignons de pin'
p4072
aS'citron'
p4073
aS'no'
p4074
I9
S'0579bcdc'
p4075
tp4076
a((lp4077
S'nouilles chinoises'
p4078
aS'roquefort'
p4079
aS'poivron'
p4080
aS'persil'
p4081
aS'menthe'
p4082
aS'no'
p4083
I34
S'e1d42a1f'
p4084
tp4085
a((lp4086
S'polenta'
p4087
aS'brie'
p4088
aS'lait de coco'
p4089
aS'ciboulette'
p4090
aS'paprika'
p4091
aS'no'
p4092
I7
S'0d035746'
p4093
tp4094
a((lp4095
S'lasagnes'
p4096
aS'amandes'
p4097
aS'piment'
p4098
aS'pesto'
p4099
aS'coriandre'
p4100
aS'no'
p4101
I15
S'8dc365c2'
p4102
tp4103
a((lp4104
S'camenbert'
p4105
aS'roquefort'
p4106
aS'aubergine'
p4107
aS'beurre de cacahu\xc3\xa8te'
p4108
aS'pignons de pin'
p4109
aS'no'
p4110
I7
S'a0e42ab8'
p4111
tp4112
a((lp4113
S'pois cass\xc3\xa9s'
p4114
aS'brie'
p4115
aS'fromage r\xc3\xa2p\xc3\xa9'
p4116
aS'paprika'
p4117
aS'coriandre'
p4118
aS'no'
p4119
I2
S'd5761ec0'
p4120
tp4121
a((lp4122
S'pain'
p4123
aS'courgette'
p4124
aS'tomates fra\xc3\xaeches'
p4125
aS'olives'
p4126
aS'citron'
p4127
aS'yes'
p4128
I31
S'0ec8f700'
p4129
tp4130
a((lp4131
S'millet'
p4132
aS'tomates s\xc3\xa9ch\xc3\xa9es'
p4133
aS'tomates fra\xc3\xaeches'
p4134
aS'parmesan'
p4135
aS'curcuma'
p4136
aS'almost'
p4137
I31
S'ad852807'
p4138
tp4139
a((lp4140
S'patates douces'
p4141
aS'oignons'
p4142
aS'c\xc3\xa2pres'
p4143
aS'roquette'
p4144
aS'pesto'
p4145
aS'almost'
p4146
I17
S'9351606d'
p4147
tp4148
a((lp4149
S'p\xc3\xa2tes'
p4150
aS'fromage r\xc3\xa2p\xc3\xa9'
p4151
aS'oignons'
p4152
aS'c\xc3\xa2pres'
p4153
aS'pousses de lentilles'
p4154
aS'no'
p4155
I12
S'0628dd3c'
p4156
tp4157
a((lp4158
S'sarrasin'
p4159
aS'c\xc5\x93ur de palmiers'
p4160
aS'oignons'
p4161
aS'sauce tomate'
p4162
aS'\xc3\xa9chalottes'
p4163
aS'yes'
p4164
I12
S'83fc9747'
p4165
tp4166
a((lp4167
S'riz'
p4168
aS'noisettes'
p4169
aS'roquette'
p4170
aS'pesto'
p4171
aS'herbes de provences'
p4172
aS'yes'
p4173
I14
S'ebfe5fda'
p4174
tp4175
a((lp4176
S'\xc3\xa9pis de ma\xc3\xafs'
p4177
aS'poireau'
p4178
aS'piment'
p4179
aS'poivre'
p4180
aS'herbes de provences'
p4181
aS'no'
p4182
I7
S'c1e98cb9'
p4183
tp4184
a((lp4185
S'lentilles'
p4186
aS'chou fleur'
p4187
aS'pousses de lentilles'
p4188
aS'pesto'
p4189
aS's\xc3\xa9same'
p4190
aS'no'
p4191
I37
S'4bbdf4b3'
p4192
tp4193
a((lp4194
S'petits-pois'
p4195
aS'seitan grill\xc3\xa9'
p4196
aS'oignons'
p4197
aS'origan'
p4198
aS'persil'
p4199
aS'no'
p4200
I38
S'e471231a'
p4201
tp4202
a((lp4203
S'riz'
p4204
aS'brie'
p4205
aS'roquette'
p4206
aS'ciboulette'
p4207
aS'origan'
p4208
aS'no'
p4209
I42
S'4d0ccfa1'
p4210
tp4211
a((lp4212
S'petits-pois'
p4213
aS'seitan grill\xc3\xa9'
p4214
aS'sauce tomate'
p4215
aS'menthe'
p4216
aS'\xc3\xa9chalottes'
p4217
aS'almost'
p4218
I50
S'edfc4153'
p4219
tp4220
a((lp4221
S'boulgour'
p4222
aS'aubergine'
p4223
aS'pignons de pin'
p4224
aS'\xc3\xa9chalottes'
p4225
aS'origan'
p4226
aS'almost'
p4227
I24
S'f1756522'
p4228
tp4229
a((lp4230
S'patates'
p4231
aS'comt\xc3\xa9'
p4232
aS'sauce tomate'
p4233
aS'sauce soja'
p4234
aS'coriandre'
p4235
aS'no'
p4236
I6
S'1408945e'
p4237
tp4238
a((lp4239
S'sarrasin'
p4240
aS'courgette'
p4241
aS'c\xc3\xa2pres'
p4242
aS'piment'
p4243
aS'origan'
p4244
aS'no'
p4245
I21
S'7cde5fea'
p4246
tp4247
a((lp4248
S'haricots blancs/rouges'
p4249
aS'roquefort'
p4250
aS'piment'
p4251
aS'cumin'
p4252
aS'herbes de provences'
p4253
aS'no'
p4254
I4
S'1a8b4a58'
p4255
tp4256
a((lp4257
S'riz'
p4258
aS'brie'
p4259
aS'oignons'
p4260
aS'roquette'
p4261
aS'curcuma'
p4262
aS'no'
p4263
I7
S'1f170301'
p4264
tp4265
a((lp4266
S'haricots blancs/rouges'
p4267
aS'noisettes'
p4268
aS'cacahu\xc3\xa8tes'
p4269
aS'roquette'
p4270
aS'menthe'
p4271
aS'no'
p4272
I6
S'b08f180a'
p4273
tp4274
a((lp4275
S'patates douces'
p4276
aS'asperges'
p4277
aS'c\xc5\x93urs d\xe2\x80\x99artichaut'
p4278
aS'curry'
p4279
aS'menthe'
p4280
aS'almost'
p4281
I4
S'b99fda66'
p4282
tp4283
a((lp4284
S'haricots verts'
p4285
aS'comt\xc3\xa9'
p4286
aS'tofu grill\xc3\xa9'
p4287
aS'oignons'
p4288
aS's\xc3\xa9same'
p4289
aS'almost'
p4290
I23
S'eb423193'
p4291
tp4292
a((lp4293
S'asperges'
p4294
aS'beurre de cacahu\xc3\xa8te'
p4295
aS'courgette'
p4296
aS'noix'
p4297
aS'moutarde'
p4298
aS'no'
p4299
I5
S'3d5f92b2'
p4300
tp4301
a((lp4302
S'haricots blancs/rouges'
p4303
aS'c\xc5\x93urs d\xe2\x80\x99artichaut'
p4304
aS'moutarde'
p4305
aS'sauce tomate'
p4306
aS'coriandre'
p4307
aS'almost'
p4308
I1
S'697128f0'
p4309
tp4310
a((lp4311
S'haricots verts'
p4312
aS'tomates s\xc3\xa9ch\xc3\xa9es'
p4313
aS'c\xc5\x93ur de palmiers'
p4314
aS'parmesan'
p4315
aS'persil'
p4316
aS'almost'
p4317
I26
S'bfa2d51b'
p4318
tp4319
a((lp4320
S'haricots verts'
p4321
aS'noix'
p4322
aS'tomates fra\xc3\xaeches'
p4323
aS'pignons de pin'
p4324
aS'paprika'
p4325
aS'almost'
p4326
I58
S'413af2f3'
p4327
tp4328
a((lp4329
S'aubergine'
p4330
aS'courgette'
p4331
aS'fromage r\xc3\xa2p\xc3\xa9'
p4332
aS'poivron'
p4333
aS'noix'
p4334
aS'pesto'
p4335
aS'yes'
p4336
I81
S'63d6aacf'
p4337
tp4338
a((lp4339
S'pitta'
p4340
aS'oeuf'
p4341
aS'tomates fra\xc3\xaeches'
p4342
aS'parmesan'
p4343
aS'basilic'
p4344
aS'ail'
p4345
aS'yes'
p4346
I58
S'20406157'
p4347
tp4348
a((lp4349
S'comt\xc3\xa9'
p4350
aS'courgette'
p4351
aS'noisettes'
p4352
aS'c\xc5\x93urs d\xe2\x80\x99artichaut'
p4353
aS'pignons de pin'
p4354
aS'parmesan'
p4355
aS'no'
p4356
I52
S'0189ca92'
p4357
tp4358
a((lp4359
S'nouilles chinoises'
p4360
aS'asperges'
p4361
aS'poivron'
p4362
aS'pesto'
p4363
aS's\xc3\xa9same'
p4364
aS'ail'
p4365
aS'yes'
p4366
I36
S'ecf4125d'
p4367
tp4368
a((lp4369
S'pois-chiches'
p4370
aS'fromage r\xc3\xa2p\xc3\xa9'
p4371
aS'pignons de pin'
p4372
aS'ciboulette'
p4373
aS'herbes de provences'
p4374
aS'sauce soja'
p4375
aS'no'
p4376
I29
S'7f5986b9'
p4377
tp4378
a((lp4379
S'petits-pois'
p4380
aS'oeuf'
p4381
aS'oignons'
p4382
aS'sauce soja'
p4383
aS'paprika'
p4384
aS'coriandre'
p4385
aS'yes'
p4386
I28
S'e35df2bf'
p4387
tp4388
a((lp4389
S'millet'
p4390
aS'noix'
p4391
aS'piment'
p4392
aS'pesto'
p4393
aS'cumin'
p4394
aS'persil'
p4395
aS'yes'
p4396
I34
S'25fecbee'
p4397
tp4398
a((lp4399
S'pitta'
p4400
aS'tomates s\xc3\xa9ch\xc3\xa9es'
p4401
aS'olives'
p4402
aS'oignons'
p4403
aS'sauce soja'
p4404
aS's\xc3\xa9same'
p4405
aS'no'
p4406
I8
S'bfa20cb8'
p4407
tp4408
a((lp4409
S'p\xc3\xa2tes'
p4410
aS'brie'
p4411
aS'oignons'
p4412
aS'c\xc3\xa2pres'
p4413
aS'basilic'
p4414
aS's\xc3\xa9same'
p4415
aS'no'
p4416
I7
S'0089589f'
p4417
tp4418
a((lp4419
S'patates'
p4420
aS'courgette'
p4421
aS'olives'
p4422
aS'moutarde'
p4423
aS'persil'
p4424
aS'herbes de provences'
p4425
aS'almost'
p4426
I7
S'20a3c075'
p4427
tp4428
a((lp4429
S'nouilles chinoises'
p4430
aS'tomates s\xc3\xa9ch\xc3\xa9es'
p4431
aS'c\xc5\x93ur de palmiers'
p4432
aS'noix'
p4433
aS'herbes de provences'
p4434
aS'curcuma'
p4435
aS'no'
p4436
I13
S'e04d5f80'
p4437
tp4438
a((lp4439
S'risotto'
p4440
aS'comt\xc3\xa9'
p4441
aS'roquette'
p4442
aS'basilic'
p4443
aS'menthe'
p4444
aS'curry'
p4445
aS'almost'
p4446
I11
S'3cc391ed'
p4447
tp4448
a((lp4449
S'lentilles'
p4450
aS'piment'
p4451
aS'roquette'
p4452
aS'pignons de pin'
p4453
aS'basilic'
p4454
aS'paprika'
p4455
aS'almost'
p4456
I33
S'dbc2fd0d'
p4457
tp4458
a((lp4459
S'haricots blancs/rouges'
p4460
aS'tomates s\xc3\xa9ch\xc3\xa9es'
p4461
aS'pignons de pin'
p4462
aS's\xc3\xa9same'
p4463
aS'persil'
p4464
aS'basilic'
p4465
aS'no'
p4466
I22
S'a0c4e6eb'
p4467
tp4468
a((lp4469
S'risotto'
p4470
aS'noisettes'
p4471
aS'sauce tomate'
p4472
aS'pesto'
p4473
aS'persil'
p4474
aS'sauce soja'
p4475
aS'no'
p4476
I135
S'008d3497'
p4477
tp4478
a((lp4479
S'p\xc3\xa2tes'
p4480
aS'cacahu\xc3\xa8tes'
p4481
aS'tomates s\xc3\xa9ch\xc3\xa9es'
p4482
aS'sauce tomate'
p4483
aS'menthe'
p4484
aS'ail'
p4485
aS'yes'
p4486
I38
S'55787746'
p4487
tp4488
a((lp4489
S'spaghetti'
p4490
aS'chou fleur'
p4491
aS'sauce tomate'
p4492
aS'\xc3\xa9chalottes'
p4493
aS'basilic'
p4494
aS'origan'
p4495
aS'yes'
p4496
I10
S'bbf783de'
p4497
tp4498
a((lp4499
S'petits-pois'
p4500
aS'c\xc5\x93urs d\xe2\x80\x99artichaut'
p4501
aS'olives'
p4502
aS'sauce soja'
p4503
aS'citron'
p4504
aS'curry'
p4505
aS'no'
p4506
I19
S'ef4ef820'
p4507
tp4508
a((lp4509
S'pitta'
p4510
aS'tofu grill\xc3\xa9'
p4511
aS'poivron'
p4512
aS'piment'
p4513
aS'menthe'
p4514
aS'persil'
p4515
aS'no'
p4516
I3
S'6acd159b'
p4517
tp4518
a((lp4519
S'quinoa'
p4520
aS'c\xc5\x93urs d\xe2\x80\x99artichaut'
p4521
aS'pignons de pin'
p4522
aS'oignons'
p4523
aS'origan'
p4524
aS'ciboulette'
p4525
aS'no'
p4526
I41
S'179a1308'
p4527
tp4528
a((lp4529
S'pain'
p4530
aS'comt\xc3\xa9'
p4531
aS'pesto'
p4532
aS'citron'
p4533
aS'poivre'
p4534
aS'curcuma'
p4535
aS'no'
p4536
I28
S'0a18383a'
p4537
tp4538
a((lp4539
S'cr\xc3\xaapes'
p4540
aS'courgette'
p4541
aS'tomates fra\xc3\xaeches'
p4542
aS'sauce tomate'
p4543
aS'oignons'
p4544
aS'\xc3\xa9chalottes'
p4545
aS'no'
p4546
I41
S'ae0abc04'
p4547
tp4548
a((lp4549
S'pain'
p4550
aS'tofu grill\xc3\xa9'
p4551
aS'piment'
p4552
aS'c\xc3\xa2pres'
p4553
aS'\xc3\xa9chalottes'
p4554
aS'origan'
p4555
aS'no'
p4556
I12
S'7b8f14f8'
p4557
tp4558
a((lp4559
S'pois-chiches'
p4560
aS'tomates s\xc3\xa9ch\xc3\xa9es'
p4561
aS'roquette'
p4562
aS'pesto'
p4563
aS'sauce tomate'
p4564
aS'ciboulette'
p4565
aS'yes'
p4566
I35
S'828f0b1a'
p4567
tp4568
a((lp4569
S'lentilles'
p4570
aS'c\xc5\x93ur de palmiers'
p4571
aS'noix'
p4572
aS'pesto'
p4573
aS'paprika'
p4574
aS'origan'
p4575
aS'yes'
p4576
I100
S'1f7f7c3a'
p4577
tp4578
a((lp4579
S'riz'
p4580
aS'oeuf'
p4581
aS'pesto'
p4582
aS'piment'
p4583
aS'\xc3\xa9chalottes'
p4584
aS'cumin'
p4585
aS'almost'
p4586
I12
S'6abde037'
p4587
tp4588
a((lp4589
S'nouilles chinoises'
p4590
aS'seitan grill\xc3\xa9'
p4591
aS'mozzarella'
p4592
aS'persil'
p4593
aS'citron'
p4594
aS'sauce soja'
p4595
aS'yes'
p4596
I58
S'c3fb64f6'
p4597
tp4598
a((lp4599
S'sarrasin'
p4600
aS'seitan grill\xc3\xa9'
p4601
aS'parmesan'
p4602
aS'roquette'
p4603
aS'coriandre'
p4604
aS'sauce soja'
p4605
aS'yes'
p4606
I4
S'500c322a'
p4607
tp4608
a((lp4609
S'pain'
p4610
aS'seitan grill\xc3\xa9'
p4611
aS'tomates fra\xc3\xaeches'
p4612
aS'parmesan'
p4613
aS'piment'
p4614
aS'poivre'
p4615
aS'yes'
p4616
I70
S'5c90793b'
p4617
tp4618
a((lp4619
S'riz'
p4620
aS'comt\xc3\xa9'
p4621
aS'c\xc5\x93ur de palmiers'
p4622
aS'c\xc3\xa2pres'
p4623
aS'origan'
p4624
aS'paprika'
p4625
aS'no'
p4626
I26
S'744b213b'
p4627
tp4628
a((lp4629
S'riz'
p4630
aS'tofu grill\xc3\xa9'
p4631
aS'moutarde'
p4632
aS'pesto'
p4633
aS'citron'
p4634
aS'menthe'
p4635
aS'yes'
p4636
I38
S'fdeb5763'
p4637
tp4638
a((lp4639
S'patates douces'
p4640
aS'tofu grill\xc3\xa9'
p4641
aS'sauce tomate'
p4642
aS'pesto'
p4643
aS'oignons'
p4644
aNI41
S'6591e603'
p4645
tp4646
a((lp4647
S'millet'
p4648
aS'comt\xc3\xa9'
p4649
aS'moutarde'
p4650
aS'pousses de lentilles'
p4651
aS'poivre'
p4652
aS'paprika'
p4653
aNI37
S'248c16b5'
p4654
tp4655
a((lp4656
S'lentilles'
p4657
aS'noisettes'
p4658
aS'poivron'
p4659
aS'persil'
p4660
aS'origan'
p4661
aS'paprika'
p4662
aNI47
S'02082570'
p4663
tp4664
a((lp4665
S'lentilles'
p4666
aS'noisettes'
p4667
aS'poivron'
p4668
aS'persil'
p4669
aS'origan'
p4670
aS'paprika'
p4671
aVno
p4672
I47
S'02082570'
p4673
tp4674
a((lp4675
S'haricots verts'
p4676
aS'aubergine'
p4677
aS'noix'
p4678
aS'pesto'
p4679
aS'persil'
p4680
aS'paprika'
p4681
aNI199
S'01fdb11f'
p4682
tp4683
a((lp4684
S'haricots verts'
p4685
aS'aubergine'
p4686
aS'noix'
p4687
aS'pesto'
p4688
aS'persil'
p4689
aS'paprika'
p4690
aVyes
p4691
I199
S'01fdb11f'
p4692
tp4693
a((lp4694
S'cr\xc3\xaapes'
p4695
aS'mozzarella'
p4696
aS'noisettes'
p4697
aS'tofu grill\xc3\xa9'
p4698
aS'pesto'
p4699
aS'pignons de pin'
p4700
aNI42
S'ec38a189'
p4701
tp4702
a((lp4703
S'cr\xc3\xaapes'
p4704
aS'mozzarella'
p4705
aS'noisettes'
p4706
aS'tofu grill\xc3\xa9'
p4707
aS'pesto'
p4708
aS'pignons de pin'
p4709
aVno
p4710
I42
S'ec38a189'
p4711
tp4712
a((lp4713
S'millet'
p4714
aS'courgette'
p4715
aS'tofu grill\xc3\xa9'
p4716
aS'moutarde'
p4717
aS'cumin'
p4718
aS's\xc3\xa9same'
p4719
aNI53
S'f70267d3'
p4720
tp4721
a((lp4722
S'millet'
p4723
aS'courgette'
p4724
aS'tofu grill\xc3\xa9'
p4725
aS'moutarde'
p4726
aS'cumin'
p4727
aS's\xc3\xa9same'
p4728
aValmost
p4729
I53
S'f70267d3'
p4730
tp4731
a((lp4732
S'haricots verts'
p4733
aS'comt\xc3\xa9'
p4734
aS'oeuf'
p4735
aS'c\xc5\x93ur de palmiers'
p4736
aS'ciboulette'
p4737
aS'ail'
p4738
aNI52
S'5daad1c7'
p4739
tp4740
a((lp4741
S'haricots verts'
p4742
aS'comt\xc3\xa9'
p4743
aS'oeuf'
p4744
aS'c\xc5\x93ur de palmiers'
p4745
aS'ciboulette'
p4746
aS'ail'
p4747
aVyes
p4748
I52
S'5daad1c7'
p4749
tp4750
a((lp4751
S'petits-pois'
p4752
aS'c\xc5\x93ur de palmiers'
p4753
aS'tomates fra\xc3\xaeches'
p4754
aS'roquette'
p4755
aS'ciboulette'
p4756
aS'origan'
p4757
aNI85
S'8e1896a9'
p4758
tp4759
a((lp4760
S'petits-pois'
p4761
aS'c\xc5\x93ur de palmiers'
p4762
aS'tomates fra\xc3\xaeches'
p4763
aS'roquette'
p4764
aS'ciboulette'
p4765
aS'origan'
p4766
aValmost
p4767
I85
S'8e1896a9'
p4768
tp4769
a((lp4770
S'quinoa'
p4771
aS'aubergine'
p4772
aS'noix'
p4773
aS'c\xc5\x93urs d\xe2\x80\x99artichaut'
p4774
aS'sauce soja'
p4775
aS'basilic'
p4776
aNI180
S'1f8fef11'
p4777
tp4778
a((lp4779
S'quinoa'
p4780
aS'aubergine'
p4781
aS'noix'
p4782
aS'c\xc5\x93urs d\xe2\x80\x99artichaut'
p4783
aS'sauce soja'
p4784
aS'basilic'
p4785
aVyes
p4786
I180
S'1f8fef11'
p4787
tp4788
a((lp4789
S'quinoa'
p4790
aS'chou fleur'
p4791
aS'piment'
p4792
aS'pousses de lentilles'
p4793
aS'citron'
p4794
aS'cumin'
p4795
aNI126
S'03240934'
p4796
tp4797
a.