(lp0
(S'pitta'
p1
I9
tp2
a(S'pain'
p3
I9
tp4
a(S'riz'
p5
I10
tp6
a(S'p\xc3\xa2tes'
p7
I10
tp8
a(S'spaghetti'
p9
I10
tp10
a(S'quinoa'
p11
I9
tp12
a(S'pois-chiches'
p13
I10
tp14
a(S'petits-pois'
p15
I10
tp16
a(S'lentilles'
p17
I10
tp18
a(S'sarrasin'
p19
I10
tp20
a(S'cr\xc3\xaapes'
p21
I8
tp22
a(S'galettes'
p23
I8
tp24
a(S'haricots verts'
p25
I8
tp26
a(S'haricots blancs/rouges'
p27
I10
tp28
a(S'pois cass\xc3\xa9s'
p29
I10
tp30
a(S'nouilles chinoises'
p31
I9
tp32
a(S'risotto'
p33
I10
tp34
a(S'\xc3\xa9pis de ma\xc3\xafs'
p35
I9
tp36
a(S'boulgour'
p37
I10
tp38
a(S'polenta'
p39
I10
tp40
a(S'patates'
p41
I10
tp42
a(S'lasagnes'
p43
I9
tp44
a(S'millet'
p45
I10
tp46
a(S'patates douces'
p47
I10
tp48
a(S'lait de coco'
p49
I3
tp50
a(S'tofu grill\xc3\xa9'
p51
I3
tp52
a(S'seitan grill\xc3\xa9'
p53
I4
tp54
a(S'olives'
p55
I2
tp56
a(S'cacahu\xc3\xa8tes'
p57
I3
tp58
a(S'piment'
p59
I2
tp60
a(S'oeuf'
p61
I4
tp62
a(S'tomates fra\xc3\xaeches'
p63
I3
tp64
a(S'sauce tomate'
p65
I2
tp66
a(S'oignons'
p67
I2
tp68
a(S'\xc3\xa9chalottes'
p69
I1
tp70
a(S'ail'
p71
I1
tp72
a(S's\xc3\xa9same'
p73
I1
tp74
a(S'sauce soja'
p75
I1
tp76
a(S'persil'
p77
I1
tp78
a(S'menthe'
p79
I1
tp80
a(S'citron'
p81
I1
tp82
a(S'pesto'
p83
I2
tp84
a(S'ciboulette'
p85
I1
tp86
a(S'basilic'
p87
I1
tp88
a(S'roquette'
p89
I2
tp90
a(S'curry'
p91
I1
tp92
a(S'curcuma'
p93
I1
tp94
a(S'chou fleur'
p95
I4
tp96
a(S'herbes de provences'
p97
I1
tp98
a(S'poivre'
p99
I1
tp100
a(S'beurre de cacahu\xc3\xa8te'
p101
I4
tp102
a(S'courgette'
p103
I4
tp104
a(S'aubergine'
p105
I4
tp106
a(S'poivron'
p107
I3
tp108
a(S'c\xc3\xa2pres'
p109
I2
tp110
a(S'pignons de pin'
p111
I2
tp112
a(S'c\xc5\x93urs d\xe2\x80\x99artichaut'
p113
I3
tp114
a(S'c\xc5\x93ur de palmiers'
p115
I3
tp116
a(S'tomates s\xc3\xa9ch\xc3\xa9es'
p117
I3
tp118
a(S'pousses de lentilles'
p119
I2
tp120
a(S'origan'
p121
I1
tp122
a(S'parmesan'
p123
I2
tp124
a(S'amandes'
p125
I3
tp126
a(S'noisettes'
p127
I3
tp128
a(S'noix'
p129
I3
tp130
a(S'camenbert'
p131
I4
tp132
a(S'roquefort'
p133
I4
tp134
a(S'comt\xc3\xa9'
p135
I4
tp136
a(S'mozzarella'
p137
I3
tp138
a(S'brie'
p139
I4
tp140
a(S'fromage r\xc3\xa2p\xc3\xa9'
p141
I3
tp142
a(S'paprika'
p143
I1
tp144
a(S'cumin'
p145
I1
tp146
a(S'coriandre'
p147
I1
tp148
a(S'moutarde'
p149
I2
tp150
a(S'asperges'
p151
I4
tp152
a(S'poireau'
p153
I4
tp154
a.